
E:/code/myos/start/build/source/kernel/kernel.elf:     file format elf32-i386
E:/code/myos/start/build/source/kernel/kernel.elf
architecture: i386, flags 0x00000112:
EXEC_P, HAS_SYMS, D_PAGED
start address 0x00010000

Program Header:
    LOAD off    0x00001000 vaddr 0x00010000 paddr 0x00010000 align 2**12
         filesz 0x00001c10 memsz 0x00005930 flags rwx

Sections:
Idx Name          Size      VMA       LMA       File off  Algn
  0 .text         0000186a  00010000  00010000  00001000  2**0
                  CONTENTS, ALLOC, LOAD, READONLY, CODE
  1 .rodata       000003a0  0001186c  0001186c  0000286c  2**2
                  CONTENTS, ALLOC, LOAD, READONLY, DATA
  2 .data         00000004  00011c0c  00011c0c  00002c0c  2**2
                  CONTENTS, ALLOC, LOAD, DATA
  3 .bss          00003d10  00011c20  00011c20  00002c10  2**5
                  ALLOC
  4 .debug_line   00000b69  00000000  00000000  00002c10  2**0
                  CONTENTS, READONLY, DEBUGGING
  5 .debug_info   00001c87  00000000  00000000  00003779  2**0
                  CONTENTS, READONLY, DEBUGGING
  6 .debug_abbrev 000008ff  00000000  00000000  00005400  2**0
                  CONTENTS, READONLY, DEBUGGING
  7 .debug_aranges 00000120  00000000  00000000  00005d00  2**3
                  CONTENTS, READONLY, DEBUGGING
  8 .debug_str    00000919  00000000  00000000  00005e20  2**0
                  CONTENTS, READONLY, DEBUGGING
  9 .comment      00000011  00000000  00000000  00006739  2**0
                  CONTENTS, READONLY
 10 .debug_frame  00000a80  00000000  00000000  0000674c  2**2
                  CONTENTS, READONLY, DEBUGGING
SYMBOL TABLE:
00010000 l    d  .text	00000000 .text
0001186c l    d  .rodata	00000000 .rodata
00011c0c l    d  .data	00000000 .data
00011c20 l    d  .bss	00000000 .bss
00000000 l    d  .debug_line	00000000 .debug_line
00000000 l    d  .debug_info	00000000 .debug_info
00000000 l    d  .debug_abbrev	00000000 .debug_abbrev
00000000 l    d  .debug_aranges	00000000 .debug_aranges
00000000 l    d  .debug_str	00000000 .debug_str
00000000 l    d  .comment	00000000 .comment
00000000 l    d  .debug_frame	00000000 .debug_frame
00000000 l    df *ABS*	00000000 CMakeFiles/kernel.dir/init/start.S.obj
00010010 l       .text	00000000 gdt_reload
00000000 l    df *ABS*	00000000 task.c
000102a5 l     F .text	000000f0 tss_init
000118c4 l     O .rodata	0000000a __func__.1859
00000000 l    df *ABS*	00000000 cpu.c
000103ec l     F .text	00000028 lgdt
00010414 l     F .text	0000001a far_jump
00011c20 l     O .bss	00000800 gdt_table
00000000 l    df *ABS*	00000000 irq.c
000105c9 l     F .text	0000001d inb
000105e6 l     F .text	0000001f outb
00010605 l     F .text	00000007 cli
0001060c l     F .text	00000007 sti
00010613 l     F .text	00000028 lidt
0001063b l     F .text	00000007 hlt
00010642 l     F .text	000000d9 dump_core_regs
0001071b l     F .text	0000003e do_default_handler
00012420 l     O .bss	00000400 idt_table
00010989 l     F .text	00000093 init_pic
00000000 l    df *ABS*	00000000 time.c
00010d57 l     F .text	0000001f outb
00012820 l     O .bss	00000004 sys_tick
00010d99 l     F .text	00000060 init_pit
00000000 l    df *ABS*	00000000 init.c
00010e11 l     F .text	00000017 write_tr
00010e28 l     F .text	0000000b list_count
00010e33 l     F .text	0000000a list_first
00010e3d l     F .text	0000000b list_last
00012840 l     O .bss	0000006c first_task
000128c0 l     O .bss	00001000 init_task_stack
000138c0 l     O .bss	0000006c init_task
00000000 l    df *ABS*	00000000 klib.c
000110be l     F .text	00000007 hlt
00011c0c l     O .data	00000004 num2ch.1900
00000000 l    df *ABS*	00000000 list.c
00011609 l     F .text	00000013 list_is_empty
00000000 l    df *ABS*	00000000 log.c
00011705 l     F .text	0000001d inb
00011722 l     F .text	0000001f outb
00011231 g     F .text	0000004f kernel_memcpy
00010d21 g     F .text	0000000b irq_enable_global
000116a1 g     F .text	00000064 list_insert_last
0001088d g     F .text	0000001c do_handler_segment_not_present
00011280 g     F .text	00000041 kernel_memset
00010267 g       .text	00000000 exception_handler_virtual_exception
00010565 g     F .text	0000000b cpu_init
00011741 g     F .text	00000075 log_init
00010fef g     F .text	000000cf init_main
0001020c g       .text	00000000 exception_handler_alignment_check
000110c5 g     F .text	00000047 kernel_strcpy
00010c04 g     F .text	0000008b irq_enable
00010028 g       .text	00000000 exception_handler_unknown
000100a4 g       .text	00000000 exception_handler_breakpoint
000107e5 g     F .text	0000001c do_handler_overflow
00010919 g     F .text	0000001c do_handler_alignment_check
000101b3 g       .text	00000000 exception_handler_general_protection
000108c5 g     F .text	0000001c do_handler_general_protection
00010775 g     F .text	0000001c do_handler_divider
00010855 g     F .text	0000001c do_handler_double_fault
00010e65 g     F .text	0000003e init_task_entry
000108e1 g     F .text	0000001c do_handler_page_fault
0001013f g       .text	00000000 exception_handler_double_fault
00010d2c g     F .text	0000002b pic_send_eoi
00010d76 g     F .text	00000023 do_handler_timer
00010196 g       .text	00000000 exception_handler_stack_segment_fault
0001096d g     F .text	0000001c do_handler_virtual_exception
000100c3 g       .text	00000000 exception_handler_overflow
00013930 g     O .bss	00002000 stack
00010ea3 g     F .text	0000014c list_test
000100e2 g       .text	00000000 exception_handler_bound_range
0001081d g     F .text	0000001c do_handler_invalid_opcode
0001015c g       .text	00000000 exception_handler_invalid_tss
000108fd g     F .text	0000001c do_handler_fpu_error
00010935 g     F .text	0000001c do_handler_machine_check
00010791 g     F .text	0000001c do_handler_Debug
00011641 g     F .text	00000060 list_insert_first
000107ad g     F .text	0000001c do_handler_NMI
00010047 g       .text	00000000 exception_handler_divider
0001110c g     F .text	00000070 kernel_strncpy
00010d16 g     F .text	0000000b irq_disable_global
00010e48 g     F .text	0000001d kernel_init
00010000 g       .text	00000000 _start
00011488 g     F .text	0000014b kernel_vsprintf
00010120 g       .text	00000000 exception_handler_device_unavailable
00010101 g       .text	00000000 exception_handler_invalid_opcode
00010229 g       .text	00000000 exception_handler_machine_check
00010871 g     F .text	0000001c do_handler_invalid_tss
000115d3 g     F .text	00000036 panic
00010286 g       .text	00000000 exception_handler_timer
00010bca g     F .text	0000003a irq_install
000104b1 g     F .text	0000006d init_gdt
00010c8f g     F .text	00000087 irq_disable
00010248 g       .text	00000000 exception_handler_smd_exception
00010839 g     F .text	0000001c do_handler_device_unavailable
000105b5 g     F .text	00000014 switch_to_tss
000112c1 g     F .text	00000064 kernel_memcmp
0001161c g     F .text	00000025 list_init
00010951 g     F .text	0000001c do_handler_smd_exception
000101d0 g       .text	00000000 exception_handler_page_fault
00010759 g     F .text	0000001c do_handler_unknown
000101ed g       .text	00000000 exception_handler_fpu_error
00010395 g     F .text	0000001b task_switch_from_to
00010a1c g     F .text	000001ae irq_init
000111f6 g     F .text	0000003b kernel_strlen
0001042e g     F .text	00000083 segment_desc_set
00010801 g     F .text	0000001c do_handler_bound_range
0001117c g     F .text	0000007a kernel_strncmp
00010179 g       .text	00000000 exception_handler_segment_not_present
00010085 g       .text	00000000 exception_handler_NMI
00010066 g       .text	00000000 exception_handler_Debug
000108a9 g     F .text	0000001c do_handler_stack_segment_fault
000107c9 g     F .text	0000001c do_handler_breakpoint
000117b6 g     F .text	000000b4 log_printf
000103b0 g     F .text	0000003c task_init
00011325 g     F .text	00000024 kernel_sprintf
00010570 g     F .text	00000045 gdt_alloc_desc
00011349 g     F .text	0000013f kernel_itoa
0001051e g     F .text	00000047 gate_desc_set
00010df9 g     F .text	00000018 time_init



Disassembly of section .text:

00010000 <_start>:
    # 第二种方法
    # mov 4(%esp), %eax
    # push %eax

    # 第三种方法
    push 4(%esp)
   10000:	ff 74 24 04          	pushl  0x4(%esp)

    # kernel_init(boot_info)
    call kernel_init
   10004:	e8 3f 0e 00 00       	call   10e48 <kernel_init>


    jmp $KERNEL_SELECTOR_CS, $gdt_reload
   10009:	ea 10 00 01 00 08 00 	ljmp   $0x8,$0x10010

00010010 <gdt_reload>:

gdt_reload:
# 数据段选择子的加载
    mov $KERNEL_SELECTOR_DS, %ax
   10010:	66 b8 10 00          	mov    $0x10,%ax
	mov %ax, %ds
   10014:	8e d8                	mov    %eax,%ds
	mov %ax, %ss
   10016:	8e d0                	mov    %eax,%ss
	mov %ax, %es
   10018:	8e c0                	mov    %eax,%es
	mov %ax, %fs
   1001a:	8e e0                	mov    %eax,%fs
	mov %ax, %gs
   1001c:	8e e8                	mov    %eax,%gs


    mov $(stack+KERNEL_STACK_SIZE) ,%esp  // BTD
   1001e:	bc 30 59 01 00       	mov    $0x15930,%esp
    jmp init_main
   10023:	e9 c7 0f 00 00       	jmp    10fef <init_main>

00010028 <exception_handler_unknown>:

    iret

.endm

exception_handler unknown,-1,0
   10028:	6a 00                	push   $0x0
   1002a:	6a ff                	push   $0xffffffff
   1002c:	60                   	pusha  
   1002d:	1e                   	push   %ds
   1002e:	06                   	push   %es
   1002f:	0f a0                	push   %fs
   10031:	0f a8                	push   %gs
   10033:	54                   	push   %esp
   10034:	e8 20 07 00 00       	call   10759 <do_handler_unknown>
   10039:	83 c4 04             	add    $0x4,%esp
   1003c:	0f a9                	pop    %gs
   1003e:	0f a1                	pop    %fs
   10040:	07                   	pop    %es
   10041:	1f                   	pop    %ds
   10042:	61                   	popa   
   10043:	83 c4 08             	add    $0x8,%esp
   10046:	cf                   	iret   

00010047 <exception_handler_divider>:
exception_handler divider,0,0
   10047:	6a 00                	push   $0x0
   10049:	6a 00                	push   $0x0
   1004b:	60                   	pusha  
   1004c:	1e                   	push   %ds
   1004d:	06                   	push   %es
   1004e:	0f a0                	push   %fs
   10050:	0f a8                	push   %gs
   10052:	54                   	push   %esp
   10053:	e8 1d 07 00 00       	call   10775 <do_handler_divider>
   10058:	83 c4 04             	add    $0x4,%esp
   1005b:	0f a9                	pop    %gs
   1005d:	0f a1                	pop    %fs
   1005f:	07                   	pop    %es
   10060:	1f                   	pop    %ds
   10061:	61                   	popa   
   10062:	83 c4 08             	add    $0x8,%esp
   10065:	cf                   	iret   

00010066 <exception_handler_Debug>:
exception_handler Debug, 1, 0
   10066:	6a 00                	push   $0x0
   10068:	6a 01                	push   $0x1
   1006a:	60                   	pusha  
   1006b:	1e                   	push   %ds
   1006c:	06                   	push   %es
   1006d:	0f a0                	push   %fs
   1006f:	0f a8                	push   %gs
   10071:	54                   	push   %esp
   10072:	e8 1a 07 00 00       	call   10791 <do_handler_Debug>
   10077:	83 c4 04             	add    $0x4,%esp
   1007a:	0f a9                	pop    %gs
   1007c:	0f a1                	pop    %fs
   1007e:	07                   	pop    %es
   1007f:	1f                   	pop    %ds
   10080:	61                   	popa   
   10081:	83 c4 08             	add    $0x8,%esp
   10084:	cf                   	iret   

00010085 <exception_handler_NMI>:
exception_handler NMI, 2, 0
   10085:	6a 00                	push   $0x0
   10087:	6a 02                	push   $0x2
   10089:	60                   	pusha  
   1008a:	1e                   	push   %ds
   1008b:	06                   	push   %es
   1008c:	0f a0                	push   %fs
   1008e:	0f a8                	push   %gs
   10090:	54                   	push   %esp
   10091:	e8 17 07 00 00       	call   107ad <do_handler_NMI>
   10096:	83 c4 04             	add    $0x4,%esp
   10099:	0f a9                	pop    %gs
   1009b:	0f a1                	pop    %fs
   1009d:	07                   	pop    %es
   1009e:	1f                   	pop    %ds
   1009f:	61                   	popa   
   100a0:	83 c4 08             	add    $0x8,%esp
   100a3:	cf                   	iret   

000100a4 <exception_handler_breakpoint>:
exception_handler breakpoint, 3, 0
   100a4:	6a 00                	push   $0x0
   100a6:	6a 03                	push   $0x3
   100a8:	60                   	pusha  
   100a9:	1e                   	push   %ds
   100aa:	06                   	push   %es
   100ab:	0f a0                	push   %fs
   100ad:	0f a8                	push   %gs
   100af:	54                   	push   %esp
   100b0:	e8 14 07 00 00       	call   107c9 <do_handler_breakpoint>
   100b5:	83 c4 04             	add    $0x4,%esp
   100b8:	0f a9                	pop    %gs
   100ba:	0f a1                	pop    %fs
   100bc:	07                   	pop    %es
   100bd:	1f                   	pop    %ds
   100be:	61                   	popa   
   100bf:	83 c4 08             	add    $0x8,%esp
   100c2:	cf                   	iret   

000100c3 <exception_handler_overflow>:
exception_handler overflow, 4, 0
   100c3:	6a 00                	push   $0x0
   100c5:	6a 04                	push   $0x4
   100c7:	60                   	pusha  
   100c8:	1e                   	push   %ds
   100c9:	06                   	push   %es
   100ca:	0f a0                	push   %fs
   100cc:	0f a8                	push   %gs
   100ce:	54                   	push   %esp
   100cf:	e8 11 07 00 00       	call   107e5 <do_handler_overflow>
   100d4:	83 c4 04             	add    $0x4,%esp
   100d7:	0f a9                	pop    %gs
   100d9:	0f a1                	pop    %fs
   100db:	07                   	pop    %es
   100dc:	1f                   	pop    %ds
   100dd:	61                   	popa   
   100de:	83 c4 08             	add    $0x8,%esp
   100e1:	cf                   	iret   

000100e2 <exception_handler_bound_range>:
exception_handler bound_range, 5, 0
   100e2:	6a 00                	push   $0x0
   100e4:	6a 05                	push   $0x5
   100e6:	60                   	pusha  
   100e7:	1e                   	push   %ds
   100e8:	06                   	push   %es
   100e9:	0f a0                	push   %fs
   100eb:	0f a8                	push   %gs
   100ed:	54                   	push   %esp
   100ee:	e8 0e 07 00 00       	call   10801 <do_handler_bound_range>
   100f3:	83 c4 04             	add    $0x4,%esp
   100f6:	0f a9                	pop    %gs
   100f8:	0f a1                	pop    %fs
   100fa:	07                   	pop    %es
   100fb:	1f                   	pop    %ds
   100fc:	61                   	popa   
   100fd:	83 c4 08             	add    $0x8,%esp
   10100:	cf                   	iret   

00010101 <exception_handler_invalid_opcode>:
exception_handler invalid_opcode, 6, 0
   10101:	6a 00                	push   $0x0
   10103:	6a 06                	push   $0x6
   10105:	60                   	pusha  
   10106:	1e                   	push   %ds
   10107:	06                   	push   %es
   10108:	0f a0                	push   %fs
   1010a:	0f a8                	push   %gs
   1010c:	54                   	push   %esp
   1010d:	e8 0b 07 00 00       	call   1081d <do_handler_invalid_opcode>
   10112:	83 c4 04             	add    $0x4,%esp
   10115:	0f a9                	pop    %gs
   10117:	0f a1                	pop    %fs
   10119:	07                   	pop    %es
   1011a:	1f                   	pop    %ds
   1011b:	61                   	popa   
   1011c:	83 c4 08             	add    $0x8,%esp
   1011f:	cf                   	iret   

00010120 <exception_handler_device_unavailable>:
exception_handler device_unavailable, 7, 0
   10120:	6a 00                	push   $0x0
   10122:	6a 07                	push   $0x7
   10124:	60                   	pusha  
   10125:	1e                   	push   %ds
   10126:	06                   	push   %es
   10127:	0f a0                	push   %fs
   10129:	0f a8                	push   %gs
   1012b:	54                   	push   %esp
   1012c:	e8 08 07 00 00       	call   10839 <do_handler_device_unavailable>
   10131:	83 c4 04             	add    $0x4,%esp
   10134:	0f a9                	pop    %gs
   10136:	0f a1                	pop    %fs
   10138:	07                   	pop    %es
   10139:	1f                   	pop    %ds
   1013a:	61                   	popa   
   1013b:	83 c4 08             	add    $0x8,%esp
   1013e:	cf                   	iret   

0001013f <exception_handler_double_fault>:
exception_handler double_fault, 8, 1
   1013f:	6a 08                	push   $0x8
   10141:	60                   	pusha  
   10142:	1e                   	push   %ds
   10143:	06                   	push   %es
   10144:	0f a0                	push   %fs
   10146:	0f a8                	push   %gs
   10148:	54                   	push   %esp
   10149:	e8 07 07 00 00       	call   10855 <do_handler_double_fault>
   1014e:	83 c4 04             	add    $0x4,%esp
   10151:	0f a9                	pop    %gs
   10153:	0f a1                	pop    %fs
   10155:	07                   	pop    %es
   10156:	1f                   	pop    %ds
   10157:	61                   	popa   
   10158:	83 c4 08             	add    $0x8,%esp
   1015b:	cf                   	iret   

0001015c <exception_handler_invalid_tss>:
exception_handler invalid_tss, 10, 1
   1015c:	6a 0a                	push   $0xa
   1015e:	60                   	pusha  
   1015f:	1e                   	push   %ds
   10160:	06                   	push   %es
   10161:	0f a0                	push   %fs
   10163:	0f a8                	push   %gs
   10165:	54                   	push   %esp
   10166:	e8 06 07 00 00       	call   10871 <do_handler_invalid_tss>
   1016b:	83 c4 04             	add    $0x4,%esp
   1016e:	0f a9                	pop    %gs
   10170:	0f a1                	pop    %fs
   10172:	07                   	pop    %es
   10173:	1f                   	pop    %ds
   10174:	61                   	popa   
   10175:	83 c4 08             	add    $0x8,%esp
   10178:	cf                   	iret   

00010179 <exception_handler_segment_not_present>:
exception_handler segment_not_present, 11, 1
   10179:	6a 0b                	push   $0xb
   1017b:	60                   	pusha  
   1017c:	1e                   	push   %ds
   1017d:	06                   	push   %es
   1017e:	0f a0                	push   %fs
   10180:	0f a8                	push   %gs
   10182:	54                   	push   %esp
   10183:	e8 05 07 00 00       	call   1088d <do_handler_segment_not_present>
   10188:	83 c4 04             	add    $0x4,%esp
   1018b:	0f a9                	pop    %gs
   1018d:	0f a1                	pop    %fs
   1018f:	07                   	pop    %es
   10190:	1f                   	pop    %ds
   10191:	61                   	popa   
   10192:	83 c4 08             	add    $0x8,%esp
   10195:	cf                   	iret   

00010196 <exception_handler_stack_segment_fault>:
exception_handler stack_segment_fault, 12, 1
   10196:	6a 0c                	push   $0xc
   10198:	60                   	pusha  
   10199:	1e                   	push   %ds
   1019a:	06                   	push   %es
   1019b:	0f a0                	push   %fs
   1019d:	0f a8                	push   %gs
   1019f:	54                   	push   %esp
   101a0:	e8 04 07 00 00       	call   108a9 <do_handler_stack_segment_fault>
   101a5:	83 c4 04             	add    $0x4,%esp
   101a8:	0f a9                	pop    %gs
   101aa:	0f a1                	pop    %fs
   101ac:	07                   	pop    %es
   101ad:	1f                   	pop    %ds
   101ae:	61                   	popa   
   101af:	83 c4 08             	add    $0x8,%esp
   101b2:	cf                   	iret   

000101b3 <exception_handler_general_protection>:
exception_handler general_protection, 13, 1
   101b3:	6a 0d                	push   $0xd
   101b5:	60                   	pusha  
   101b6:	1e                   	push   %ds
   101b7:	06                   	push   %es
   101b8:	0f a0                	push   %fs
   101ba:	0f a8                	push   %gs
   101bc:	54                   	push   %esp
   101bd:	e8 03 07 00 00       	call   108c5 <do_handler_general_protection>
   101c2:	83 c4 04             	add    $0x4,%esp
   101c5:	0f a9                	pop    %gs
   101c7:	0f a1                	pop    %fs
   101c9:	07                   	pop    %es
   101ca:	1f                   	pop    %ds
   101cb:	61                   	popa   
   101cc:	83 c4 08             	add    $0x8,%esp
   101cf:	cf                   	iret   

000101d0 <exception_handler_page_fault>:
exception_handler page_fault, 14, 1
   101d0:	6a 0e                	push   $0xe
   101d2:	60                   	pusha  
   101d3:	1e                   	push   %ds
   101d4:	06                   	push   %es
   101d5:	0f a0                	push   %fs
   101d7:	0f a8                	push   %gs
   101d9:	54                   	push   %esp
   101da:	e8 02 07 00 00       	call   108e1 <do_handler_page_fault>
   101df:	83 c4 04             	add    $0x4,%esp
   101e2:	0f a9                	pop    %gs
   101e4:	0f a1                	pop    %fs
   101e6:	07                   	pop    %es
   101e7:	1f                   	pop    %ds
   101e8:	61                   	popa   
   101e9:	83 c4 08             	add    $0x8,%esp
   101ec:	cf                   	iret   

000101ed <exception_handler_fpu_error>:
exception_handler fpu_error, 16, 0
   101ed:	6a 00                	push   $0x0
   101ef:	6a 10                	push   $0x10
   101f1:	60                   	pusha  
   101f2:	1e                   	push   %ds
   101f3:	06                   	push   %es
   101f4:	0f a0                	push   %fs
   101f6:	0f a8                	push   %gs
   101f8:	54                   	push   %esp
   101f9:	e8 ff 06 00 00       	call   108fd <do_handler_fpu_error>
   101fe:	83 c4 04             	add    $0x4,%esp
   10201:	0f a9                	pop    %gs
   10203:	0f a1                	pop    %fs
   10205:	07                   	pop    %es
   10206:	1f                   	pop    %ds
   10207:	61                   	popa   
   10208:	83 c4 08             	add    $0x8,%esp
   1020b:	cf                   	iret   

0001020c <exception_handler_alignment_check>:
exception_handler alignment_check, 17, 1
   1020c:	6a 11                	push   $0x11
   1020e:	60                   	pusha  
   1020f:	1e                   	push   %ds
   10210:	06                   	push   %es
   10211:	0f a0                	push   %fs
   10213:	0f a8                	push   %gs
   10215:	54                   	push   %esp
   10216:	e8 fe 06 00 00       	call   10919 <do_handler_alignment_check>
   1021b:	83 c4 04             	add    $0x4,%esp
   1021e:	0f a9                	pop    %gs
   10220:	0f a1                	pop    %fs
   10222:	07                   	pop    %es
   10223:	1f                   	pop    %ds
   10224:	61                   	popa   
   10225:	83 c4 08             	add    $0x8,%esp
   10228:	cf                   	iret   

00010229 <exception_handler_machine_check>:
exception_handler machine_check, 18, 0
   10229:	6a 00                	push   $0x0
   1022b:	6a 12                	push   $0x12
   1022d:	60                   	pusha  
   1022e:	1e                   	push   %ds
   1022f:	06                   	push   %es
   10230:	0f a0                	push   %fs
   10232:	0f a8                	push   %gs
   10234:	54                   	push   %esp
   10235:	e8 fb 06 00 00       	call   10935 <do_handler_machine_check>
   1023a:	83 c4 04             	add    $0x4,%esp
   1023d:	0f a9                	pop    %gs
   1023f:	0f a1                	pop    %fs
   10241:	07                   	pop    %es
   10242:	1f                   	pop    %ds
   10243:	61                   	popa   
   10244:	83 c4 08             	add    $0x8,%esp
   10247:	cf                   	iret   

00010248 <exception_handler_smd_exception>:
exception_handler smd_exception, 19, 0
   10248:	6a 00                	push   $0x0
   1024a:	6a 13                	push   $0x13
   1024c:	60                   	pusha  
   1024d:	1e                   	push   %ds
   1024e:	06                   	push   %es
   1024f:	0f a0                	push   %fs
   10251:	0f a8                	push   %gs
   10253:	54                   	push   %esp
   10254:	e8 f8 06 00 00       	call   10951 <do_handler_smd_exception>
   10259:	83 c4 04             	add    $0x4,%esp
   1025c:	0f a9                	pop    %gs
   1025e:	0f a1                	pop    %fs
   10260:	07                   	pop    %es
   10261:	1f                   	pop    %ds
   10262:	61                   	popa   
   10263:	83 c4 08             	add    $0x8,%esp
   10266:	cf                   	iret   

00010267 <exception_handler_virtual_exception>:
exception_handler virtual_exception, 20, 0
   10267:	6a 00                	push   $0x0
   10269:	6a 14                	push   $0x14
   1026b:	60                   	pusha  
   1026c:	1e                   	push   %ds
   1026d:	06                   	push   %es
   1026e:	0f a0                	push   %fs
   10270:	0f a8                	push   %gs
   10272:	54                   	push   %esp
   10273:	e8 f5 06 00 00       	call   1096d <do_handler_virtual_exception>
   10278:	83 c4 04             	add    $0x4,%esp
   1027b:	0f a9                	pop    %gs
   1027d:	0f a1                	pop    %fs
   1027f:	07                   	pop    %es
   10280:	1f                   	pop    %ds
   10281:	61                   	popa   
   10282:	83 c4 08             	add    $0x8,%esp
   10285:	cf                   	iret   

00010286 <exception_handler_timer>:

// 硬件中断
exception_handler timer, 0x20, 0
   10286:	6a 00                	push   $0x0
   10288:	6a 20                	push   $0x20
   1028a:	60                   	pusha  
   1028b:	1e                   	push   %ds
   1028c:	06                   	push   %es
   1028d:	0f a0                	push   %fs
   1028f:	0f a8                	push   %gs
   10291:	54                   	push   %esp
   10292:	e8 df 0a 00 00       	call   10d76 <do_handler_timer>
   10297:	83 c4 04             	add    $0x4,%esp
   1029a:	0f a9                	pop    %gs
   1029c:	0f a1                	pop    %fs
   1029e:	07                   	pop    %es
   1029f:	1f                   	pop    %ds
   102a0:	61                   	popa   
   102a1:	83 c4 08             	add    $0x8,%esp
   102a4:	cf                   	iret   

000102a5 <tss_init>:
#include "cpu/cpu.h"
#include "os_cfg.h"
#include "tools/log.h"


static int tss_init(task_t * task, uint32_t entry, uint32_t esp) {
   102a5:	55                   	push   %ebp
   102a6:	89 e5                	mov    %esp,%ebp
   102a8:	83 ec 18             	sub    $0x18,%esp
    // 为TSS分配GDT
    int tss_sel = gdt_alloc_desc();
   102ab:	e8 c0 02 00 00       	call   10570 <gdt_alloc_desc>
   102b0:	89 45 f4             	mov    %eax,-0xc(%ebp)
    if(tss_sel < 0) {
   102b3:	83 7d f4 00          	cmpl   $0x0,-0xc(%ebp)
   102b7:	79 1a                	jns    102d3 <tss_init+0x2e>
        log_printf("alloc tss failed.\n");
   102b9:	83 ec 0c             	sub    $0xc,%esp
   102bc:	68 6c 18 01 00       	push   $0x1186c
   102c1:	e8 f0 14 00 00       	call   117b6 <log_printf>
   102c6:	83 c4 10             	add    $0x10,%esp
        return -1;
   102c9:	b8 ff ff ff ff       	mov    $0xffffffff,%eax
   102ce:	e9 c0 00 00 00       	jmp    10393 <tss_init+0xee>
    }
    segment_desc_set(tss_sel, (uint32_t)&task->tss ,sizeof(tss_t),
   102d3:	8b 45 08             	mov    0x8(%ebp),%eax
   102d6:	68 89 00 00 00       	push   $0x89
   102db:	6a 68                	push   $0x68
   102dd:	50                   	push   %eax
   102de:	ff 75 f4             	pushl  -0xc(%ebp)
   102e1:	e8 48 01 00 00       	call   1042e <segment_desc_set>
   102e6:	83 c4 10             	add    $0x10,%esp
        SEG_P_PRESENT | SEG_DPL0 | SEG_TYPE_TSS);
    
    // tss段初始化
    kernel_memset(&task->tss, 0, sizeof(tss_t));
   102e9:	8b 45 08             	mov    0x8(%ebp),%eax
   102ec:	83 ec 04             	sub    $0x4,%esp
   102ef:	6a 68                	push   $0x68
   102f1:	6a 00                	push   $0x0
   102f3:	50                   	push   %eax
   102f4:	e8 87 0f 00 00       	call   11280 <kernel_memset>
   102f9:	83 c4 10             	add    $0x10,%esp
    task->tss.eip = entry;
   102fc:	8b 45 08             	mov    0x8(%ebp),%eax
   102ff:	8b 55 0c             	mov    0xc(%ebp),%edx
   10302:	89 50 20             	mov    %edx,0x20(%eax)
    task->tss.esp = task->tss.esp0 = esp;
   10305:	8b 45 08             	mov    0x8(%ebp),%eax
   10308:	8b 55 10             	mov    0x10(%ebp),%edx
   1030b:	89 50 04             	mov    %edx,0x4(%eax)
   1030e:	8b 45 08             	mov    0x8(%ebp),%eax
   10311:	8b 50 04             	mov    0x4(%eax),%edx
   10314:	8b 45 08             	mov    0x8(%ebp),%eax
   10317:	89 50 38             	mov    %edx,0x38(%eax)
    task->tss.ss0 = KERNEL_SELECTOR_DS;
   1031a:	8b 45 08             	mov    0x8(%ebp),%eax
   1031d:	c7 40 08 10 00 00 00 	movl   $0x10,0x8(%eax)
    task->tss.eip = entry;
   10324:	8b 45 08             	mov    0x8(%ebp),%eax
   10327:	8b 55 0c             	mov    0xc(%ebp),%edx
   1032a:	89 50 20             	mov    %edx,0x20(%eax)
    task->tss.eflags = EFLAGS_DEFAULT | EFLAGS_IF;
   1032d:	8b 45 08             	mov    0x8(%ebp),%eax
   10330:	c7 40 24 02 02 00 00 	movl   $0x202,0x24(%eax)
    task->tss.es = task->tss.ss = task->tss.ds
            = task->tss.fs = task->tss.gs = KERNEL_SELECTOR_DS;   // 暂时写死
   10337:	8b 45 08             	mov    0x8(%ebp),%eax
   1033a:	c7 40 5c 10 00 00 00 	movl   $0x10,0x5c(%eax)
   10341:	8b 45 08             	mov    0x8(%ebp),%eax
   10344:	8b 50 5c             	mov    0x5c(%eax),%edx
   10347:	8b 45 08             	mov    0x8(%ebp),%eax
   1034a:	89 50 58             	mov    %edx,0x58(%eax)
   1034d:	8b 45 08             	mov    0x8(%ebp),%eax
   10350:	8b 50 58             	mov    0x58(%eax),%edx
   10353:	8b 45 08             	mov    0x8(%ebp),%eax
   10356:	89 50 54             	mov    %edx,0x54(%eax)
    task->tss.es = task->tss.ss = task->tss.ds
   10359:	8b 45 08             	mov    0x8(%ebp),%eax
   1035c:	8b 50 54             	mov    0x54(%eax),%edx
   1035f:	8b 45 08             	mov    0x8(%ebp),%eax
   10362:	89 50 50             	mov    %edx,0x50(%eax)
   10365:	8b 45 08             	mov    0x8(%ebp),%eax
   10368:	8b 50 50             	mov    0x50(%eax),%edx
   1036b:	8b 45 08             	mov    0x8(%ebp),%eax
   1036e:	89 50 48             	mov    %edx,0x48(%eax)
    task->tss.cs = KERNEL_SELECTOR_CS;    // 暂时写死
   10371:	8b 45 08             	mov    0x8(%ebp),%eax
   10374:	c7 40 4c 08 00 00 00 	movl   $0x8,0x4c(%eax)
    task->tss.iomap = 0;
   1037b:	8b 45 08             	mov    0x8(%ebp),%eax
   1037e:	c7 40 64 00 00 00 00 	movl   $0x0,0x64(%eax)

    task->tss_sel = tss_sel;
   10385:	8b 45 08             	mov    0x8(%ebp),%eax
   10388:	8b 55 f4             	mov    -0xc(%ebp),%edx
   1038b:	89 50 68             	mov    %edx,0x68(%eax)
    return 0;
   1038e:	b8 00 00 00 00       	mov    $0x0,%eax
}
   10393:	c9                   	leave  
   10394:	c3                   	ret    

00010395 <task_switch_from_to>:

/**
 * @brief 切换至指定任务
 */
void simple_switch (uint32_t ** from, uint32_t * to);
void task_switch_from_to(task_t * from,task_t * to) {
   10395:	55                   	push   %ebp
   10396:	89 e5                	mov    %esp,%ebp
   10398:	83 ec 08             	sub    $0x8,%esp
    switch_to_tss(to->tss_sel);
   1039b:	8b 45 0c             	mov    0xc(%ebp),%eax
   1039e:	8b 40 68             	mov    0x68(%eax),%eax
   103a1:	83 ec 0c             	sub    $0xc,%esp
   103a4:	50                   	push   %eax
   103a5:	e8 0b 02 00 00       	call   105b5 <switch_to_tss>
   103aa:	83 c4 10             	add    $0x10,%esp
    // simple_switch(&from->stack,to->stack);
}
   103ad:	90                   	nop
   103ae:	c9                   	leave  
   103af:	c3                   	ret    

000103b0 <task_init>:


/**
 * @brief 初始化任务
 */
int task_init (task_t * task, uint32_t entry, uint32_t esp){
   103b0:	55                   	push   %ebp
   103b1:	89 e5                	mov    %esp,%ebp
   103b3:	83 ec 08             	sub    $0x8,%esp
    ASSERT(task != (task_t*)0);
   103b6:	83 7d 08 00          	cmpl   $0x0,0x8(%ebp)
   103ba:	75 19                	jne    103d5 <task_init+0x25>
   103bc:	68 7f 18 01 00       	push   $0x1187f
   103c1:	68 c4 18 01 00       	push   $0x118c4
   103c6:	6a 35                	push   $0x35
   103c8:	68 94 18 01 00       	push   $0x11894
   103cd:	e8 01 12 00 00       	call   115d3 <panic>
   103d2:	83 c4 10             	add    $0x10,%esp

    tss_init(task,entry,esp);
   103d5:	83 ec 04             	sub    $0x4,%esp
   103d8:	ff 75 10             	pushl  0x10(%ebp)
   103db:	ff 75 0c             	pushl  0xc(%ebp)
   103de:	ff 75 08             	pushl  0x8(%ebp)
   103e1:	e8 bf fe ff ff       	call   102a5 <tss_init>
   103e6:	83 c4 10             	add    $0x10,%esp
    //     *(--pesp) = 0;
    //     *(--pesp) = 0;
    //     task->stack = pesp;
    // }
    // return 0;
}
   103e9:	90                   	nop
   103ea:	c9                   	leave  
   103eb:	c3                   	ret    

000103ec <lgdt>:
static inline void sti(void){
    __asm__ __volatile__("sti");    
}


static inline void lgdt(uint32_t start,uint32_t size){
   103ec:	55                   	push   %ebp
   103ed:	89 e5                	mov    %esp,%ebp
   103ef:	83 ec 10             	sub    $0x10,%esp
        uint16_t limit;
        uint16_t start15_0;
        uint16_t start32_16;
    }gdt;
    
    gdt.start32_16 = start >> 16;
   103f2:	8b 45 08             	mov    0x8(%ebp),%eax
   103f5:	c1 e8 10             	shr    $0x10,%eax
   103f8:	66 89 45 fe          	mov    %ax,-0x2(%ebp)
    gdt.start15_0 = start & 0xffff;
   103fc:	8b 45 08             	mov    0x8(%ebp),%eax
   103ff:	66 89 45 fc          	mov    %ax,-0x4(%ebp)
    gdt.limit = size - 1;
   10403:	8b 45 0c             	mov    0xc(%ebp),%eax
   10406:	83 e8 01             	sub    $0x1,%eax
   10409:	66 89 45 fa          	mov    %ax,-0x6(%ebp)

    __asm__ __volatile__("lgdt %[g]"::[g]"m"(gdt));
   1040d:	0f 01 55 fa          	lgdtl  -0x6(%ebp)
}
   10411:	90                   	nop
   10412:	c9                   	leave  
   10413:	c3                   	ret    

00010414 <far_jump>:

    __asm__ __volatile__("mov %[v],%%cr0"::[v]"r"(v));
}


static inline void far_jump(uint32_t selector,uint32_t offset){
   10414:	55                   	push   %ebp
   10415:	89 e5                	mov    %esp,%ebp
   10417:	83 ec 10             	sub    $0x10,%esp
    uint32_t addr[] = {offset,selector};
   1041a:	8b 45 0c             	mov    0xc(%ebp),%eax
   1041d:	89 45 f8             	mov    %eax,-0x8(%ebp)
   10420:	8b 45 08             	mov    0x8(%ebp),%eax
   10423:	89 45 fc             	mov    %eax,-0x4(%ebp)
    __asm__ __volatile__("ljmpl *(%[a])"::[a]"r"(addr));
   10426:	8d 45 f8             	lea    -0x8(%ebp),%eax
   10429:	ff 28                	ljmp   *(%eax)
}
   1042b:	90                   	nop
   1042c:	c9                   	leave  
   1042d:	c3                   	ret    

0001042e <segment_desc_set>:
#include "comm/cpu_instr.h"
// GDT表第0个表项系统保留不使用
static segment_desc_t gdt_table[GDT_TABLE_SIZE];

//  设置GDT表函数
void segment_desc_set (int selector, uint32_t base, uint32_t limit,uint16_t attr){
   1042e:	55                   	push   %ebp
   1042f:	89 e5                	mov    %esp,%ebp
   10431:	83 ec 14             	sub    $0x14,%esp
   10434:	8b 45 14             	mov    0x14(%ebp),%eax
   10437:	66 89 45 ec          	mov    %ax,-0x14(%ebp)

    segment_desc_t * desc = gdt_table + selector / sizeof(segment_desc_t);
   1043b:	8b 45 08             	mov    0x8(%ebp),%eax
   1043e:	83 e0 f8             	and    $0xfffffff8,%eax
   10441:	05 20 1c 01 00       	add    $0x11c20,%eax
   10446:	89 45 fc             	mov    %eax,-0x4(%ebp)

	// 如果界限比较长，将长度单位换成4KB
    // 方法为将 attr中的 G = 1
	if (limit > 0xfffff) {
   10449:	81 7d 10 ff ff 0f 00 	cmpl   $0xfffff,0x10(%ebp)
   10450:	76 0f                	jbe    10461 <segment_desc_set+0x33>
		attr |= SEG_G;
   10452:	66 81 4d ec 00 80    	orw    $0x8000,-0x14(%ebp)
		limit /= 0x1000;
   10458:	8b 45 10             	mov    0x10(%ebp),%eax
   1045b:	c1 e8 0c             	shr    $0xc,%eax
   1045e:	89 45 10             	mov    %eax,0x10(%ebp)
	}
    desc->limit15_0 = limit & 0xffff;
   10461:	8b 45 10             	mov    0x10(%ebp),%eax
   10464:	89 c2                	mov    %eax,%edx
   10466:	8b 45 fc             	mov    -0x4(%ebp),%eax
   10469:	66 89 10             	mov    %dx,(%eax)
    desc->base15_0 = base & 0xffff;
   1046c:	8b 45 0c             	mov    0xc(%ebp),%eax
   1046f:	89 c2                	mov    %eax,%edx
   10471:	8b 45 fc             	mov    -0x4(%ebp),%eax
   10474:	66 89 50 02          	mov    %dx,0x2(%eax)
    desc->base23_16 = (base >> 16) & 0xff;
   10478:	8b 45 0c             	mov    0xc(%ebp),%eax
   1047b:	c1 e8 10             	shr    $0x10,%eax
   1047e:	89 c2                	mov    %eax,%edx
   10480:	8b 45 fc             	mov    -0x4(%ebp),%eax
   10483:	88 50 04             	mov    %dl,0x4(%eax)
    desc->attr = attr | (((limit >> 16) & 0xf) << 8);
   10486:	8b 45 10             	mov    0x10(%ebp),%eax
   10489:	c1 e8 10             	shr    $0x10,%eax
   1048c:	c1 e0 08             	shl    $0x8,%eax
   1048f:	66 25 00 0f          	and    $0xf00,%ax
   10493:	66 0b 45 ec          	or     -0x14(%ebp),%ax
   10497:	89 c2                	mov    %eax,%edx
   10499:	8b 45 fc             	mov    -0x4(%ebp),%eax
   1049c:	66 89 50 05          	mov    %dx,0x5(%eax)
    desc->base31_24 = (base >> 24) & 0xff;
   104a0:	8b 45 0c             	mov    0xc(%ebp),%eax
   104a3:	c1 e8 18             	shr    $0x18,%eax
   104a6:	89 c2                	mov    %eax,%edx
   104a8:	8b 45 fc             	mov    -0x4(%ebp),%eax
   104ab:	88 50 07             	mov    %dl,0x7(%eax)

}
   104ae:	90                   	nop
   104af:	c9                   	leave  
   104b0:	c3                   	ret    

000104b1 <init_gdt>:

void init_gdt(void){
   104b1:	55                   	push   %ebp
   104b2:	89 e5                	mov    %esp,%ebp
   104b4:	83 ec 10             	sub    $0x10,%esp
    for(int i = 0;i < GDT_TABLE_SIZE;i++){
   104b7:	c7 45 fc 00 00 00 00 	movl   $0x0,-0x4(%ebp)
   104be:	eb 19                	jmp    104d9 <init_gdt+0x28>
        segment_desc_set(i*sizeof(segment_desc_t),0,0,0);
   104c0:	8b 45 fc             	mov    -0x4(%ebp),%eax
   104c3:	c1 e0 03             	shl    $0x3,%eax
   104c6:	6a 00                	push   $0x0
   104c8:	6a 00                	push   $0x0
   104ca:	6a 00                	push   $0x0
   104cc:	50                   	push   %eax
   104cd:	e8 5c ff ff ff       	call   1042e <segment_desc_set>
   104d2:	83 c4 10             	add    $0x10,%esp
    for(int i = 0;i < GDT_TABLE_SIZE;i++){
   104d5:	83 45 fc 01          	addl   $0x1,-0x4(%ebp)
   104d9:	81 7d fc ff 00 00 00 	cmpl   $0xff,-0x4(%ebp)
   104e0:	7e de                	jle    104c0 <init_gdt+0xf>
    }

// 设置GDT表中的CS段
// 只能用非一致代码段，以便通过调用门更改当前任务的CPL执行关键的资源访问操作
    segment_desc_set(KERNEL_SELECTOR_CS, 0x00000000, 0xFFFFFFFF,
   104e2:	68 9a 40 00 00       	push   $0x409a
   104e7:	6a ff                	push   $0xffffffff
   104e9:	6a 00                	push   $0x0
   104eb:	6a 08                	push   $0x8
   104ed:	e8 3c ff ff ff       	call   1042e <segment_desc_set>
   104f2:	83 c4 10             	add    $0x10,%esp
                     SEG_P_PRESENT | SEG_DPL0 | SEG_S_NORMAL | SEG_TYPE_CODE
                     | SEG_TYPE_RW | SEG_D);

// 设置GDT表中的DS段
    segment_desc_set(KERNEL_SELECTOR_DS, 0x00000000, 0xFFFFFFFF,
   104f5:	68 92 40 00 00       	push   $0x4092
   104fa:	6a ff                	push   $0xffffffff
   104fc:	6a 00                	push   $0x0
   104fe:	6a 10                	push   $0x10
   10500:	e8 29 ff ff ff       	call   1042e <segment_desc_set>
   10505:	83 c4 10             	add    $0x10,%esp
                     SEG_P_PRESENT | SEG_DPL0 | SEG_S_NORMAL | SEG_TYPE_DATA
                     | SEG_TYPE_RW | SEG_D);

    lgdt((uint32_t)gdt_table,sizeof(gdt_table));
   10508:	b8 20 1c 01 00       	mov    $0x11c20,%eax
   1050d:	68 00 08 00 00       	push   $0x800
   10512:	50                   	push   %eax
   10513:	e8 d4 fe ff ff       	call   103ec <lgdt>
   10518:	83 c4 08             	add    $0x8,%esp
}
   1051b:	90                   	nop
   1051c:	c9                   	leave  
   1051d:	c3                   	ret    

0001051e <gate_desc_set>:

/**
 * 设置门描述符
 */
void gate_desc_set(gate_desc_t * desc, uint16_t selector, uint32_t offset, uint16_t attr) {
   1051e:	55                   	push   %ebp
   1051f:	89 e5                	mov    %esp,%ebp
   10521:	83 ec 08             	sub    $0x8,%esp
   10524:	8b 55 0c             	mov    0xc(%ebp),%edx
   10527:	8b 45 14             	mov    0x14(%ebp),%eax
   1052a:	66 89 55 fc          	mov    %dx,-0x4(%ebp)
   1052e:	66 89 45 f8          	mov    %ax,-0x8(%ebp)

	desc->offset15_0 = offset & 0xffff;
   10532:	8b 45 10             	mov    0x10(%ebp),%eax
   10535:	89 c2                	mov    %eax,%edx
   10537:	8b 45 08             	mov    0x8(%ebp),%eax
   1053a:	66 89 10             	mov    %dx,(%eax)
    desc->selector = selector;
   1053d:	8b 45 08             	mov    0x8(%ebp),%eax
   10540:	0f b7 55 fc          	movzwl -0x4(%ebp),%edx
   10544:	66 89 50 02          	mov    %dx,0x2(%eax)
    desc->attr = attr;
   10548:	8b 45 08             	mov    0x8(%ebp),%eax
   1054b:	0f b7 55 f8          	movzwl -0x8(%ebp),%edx
   1054f:	66 89 50 04          	mov    %dx,0x4(%eax)
    desc->offset31_16 = (offset >> 16) & 0xffff;
   10553:	8b 45 10             	mov    0x10(%ebp),%eax
   10556:	c1 e8 10             	shr    $0x10,%eax
   10559:	89 c2                	mov    %eax,%edx
   1055b:	8b 45 08             	mov    0x8(%ebp),%eax
   1055e:	66 89 50 06          	mov    %dx,0x6(%eax)
}
   10562:	90                   	nop
   10563:	c9                   	leave  
   10564:	c3                   	ret    

00010565 <cpu_init>:

void cpu_init (void){
   10565:	55                   	push   %ebp
   10566:	89 e5                	mov    %esp,%ebp
    // 初始化GDT表
    init_gdt();
   10568:	e8 44 ff ff ff       	call   104b1 <init_gdt>
}
   1056d:	90                   	nop
   1056e:	5d                   	pop    %ebp
   1056f:	c3                   	ret    

00010570 <gdt_alloc_desc>:

int gdt_alloc_desc(){
   10570:	55                   	push   %ebp
   10571:	89 e5                	mov    %esp,%ebp
   10573:	83 ec 10             	sub    $0x10,%esp
    for (int i = 1;i <GDT_TABLE_SIZE;i++) {
   10576:	c7 45 fc 01 00 00 00 	movl   $0x1,-0x4(%ebp)
   1057d:	eb 26                	jmp    105a5 <gdt_alloc_desc+0x35>

        segment_desc_t * desc = gdt_table + i;
   1057f:	8b 45 fc             	mov    -0x4(%ebp),%eax
   10582:	c1 e0 03             	shl    $0x3,%eax
   10585:	05 20 1c 01 00       	add    $0x11c20,%eax
   1058a:	89 45 f8             	mov    %eax,-0x8(%ebp)
        if(desc->attr == 0) {
   1058d:	8b 45 f8             	mov    -0x8(%ebp),%eax
   10590:	0f b7 40 05          	movzwl 0x5(%eax),%eax
   10594:	66 85 c0             	test   %ax,%ax
   10597:	75 08                	jne    105a1 <gdt_alloc_desc+0x31>
            return i * sizeof(segment_desc_t);
   10599:	8b 45 fc             	mov    -0x4(%ebp),%eax
   1059c:	c1 e0 03             	shl    $0x3,%eax
   1059f:	eb 12                	jmp    105b3 <gdt_alloc_desc+0x43>
    for (int i = 1;i <GDT_TABLE_SIZE;i++) {
   105a1:	83 45 fc 01          	addl   $0x1,-0x4(%ebp)
   105a5:	81 7d fc ff 00 00 00 	cmpl   $0xff,-0x4(%ebp)
   105ac:	7e d1                	jle    1057f <gdt_alloc_desc+0xf>
        }
    }
    return -1;
   105ae:	b8 ff ff ff ff       	mov    $0xffffffff,%eax
}
   105b3:	c9                   	leave  
   105b4:	c3                   	ret    

000105b5 <switch_to_tss>:

void switch_to_tss(int tss_sel) {
   105b5:	55                   	push   %ebp
   105b6:	89 e5                	mov    %esp,%ebp
    far_jump(tss_sel,0);
   105b8:	8b 45 08             	mov    0x8(%ebp),%eax
   105bb:	6a 00                	push   $0x0
   105bd:	50                   	push   %eax
   105be:	e8 51 fe ff ff       	call   10414 <far_jump>
   105c3:	83 c4 08             	add    $0x8,%esp
   105c6:	90                   	nop
   105c7:	c9                   	leave  
   105c8:	c3                   	ret    

000105c9 <inb>:
static inline uint8_t inb(uint16_t port) {
   105c9:	55                   	push   %ebp
   105ca:	89 e5                	mov    %esp,%ebp
   105cc:	83 ec 14             	sub    $0x14,%esp
   105cf:	8b 45 08             	mov    0x8(%ebp),%eax
   105d2:	66 89 45 ec          	mov    %ax,-0x14(%ebp)
    __asm__ __volatile__("inb %[p],%[v]":[v]"=a"(rv):[p]"d"(port));
   105d6:	0f b7 45 ec          	movzwl -0x14(%ebp),%eax
   105da:	89 c2                	mov    %eax,%edx
   105dc:	ec                   	in     (%dx),%al
   105dd:	88 45 ff             	mov    %al,-0x1(%ebp)
    return rv;
   105e0:	0f b6 45 ff          	movzbl -0x1(%ebp),%eax
}
   105e4:	c9                   	leave  
   105e5:	c3                   	ret    

000105e6 <outb>:
static inline void outb(uint16_t port,uint8_t data){
   105e6:	55                   	push   %ebp
   105e7:	89 e5                	mov    %esp,%ebp
   105e9:	83 ec 08             	sub    $0x8,%esp
   105ec:	8b 55 08             	mov    0x8(%ebp),%edx
   105ef:	8b 45 0c             	mov    0xc(%ebp),%eax
   105f2:	66 89 55 fc          	mov    %dx,-0x4(%ebp)
   105f6:	88 45 f8             	mov    %al,-0x8(%ebp)
    __asm__ __volatile__("outb %[v],%[p]"::[p]"d"(port),[v]"a"(data));
   105f9:	0f b7 55 fc          	movzwl -0x4(%ebp),%edx
   105fd:	0f b6 45 f8          	movzbl -0x8(%ebp),%eax
   10601:	ee                   	out    %al,(%dx)
}
   10602:	90                   	nop
   10603:	c9                   	leave  
   10604:	c3                   	ret    

00010605 <cli>:
static inline void cli(void){
   10605:	55                   	push   %ebp
   10606:	89 e5                	mov    %esp,%ebp
    __asm__ __volatile__("cli");    
   10608:	fa                   	cli    
}
   10609:	90                   	nop
   1060a:	5d                   	pop    %ebp
   1060b:	c3                   	ret    

0001060c <sti>:
static inline void sti(void){
   1060c:	55                   	push   %ebp
   1060d:	89 e5                	mov    %esp,%ebp
    __asm__ __volatile__("sti");    
   1060f:	fb                   	sti    
}
   10610:	90                   	nop
   10611:	5d                   	pop    %ebp
   10612:	c3                   	ret    

00010613 <lidt>:



static inline void lidt(uint32_t start,uint32_t size){
   10613:	55                   	push   %ebp
   10614:	89 e5                	mov    %esp,%ebp
   10616:	83 ec 10             	sub    $0x10,%esp
        uint16_t limit;
        uint16_t start15_0;
        uint16_t start32_16;
    }idt;
    
    idt.start32_16 = start >> 16;
   10619:	8b 45 08             	mov    0x8(%ebp),%eax
   1061c:	c1 e8 10             	shr    $0x10,%eax
   1061f:	66 89 45 fe          	mov    %ax,-0x2(%ebp)
    idt.start15_0 = start & 0xffff;
   10623:	8b 45 08             	mov    0x8(%ebp),%eax
   10626:	66 89 45 fc          	mov    %ax,-0x4(%ebp)
    idt.limit = size - 1;
   1062a:	8b 45 0c             	mov    0xc(%ebp),%eax
   1062d:	83 e8 01             	sub    $0x1,%eax
   10630:	66 89 45 fa          	mov    %ax,-0x6(%ebp)

    __asm__ __volatile__("lidt %[g]"::[g]"m"(idt));
   10634:	0f 01 5d fa          	lidtl  -0x6(%ebp)
}
   10638:	90                   	nop
   10639:	c9                   	leave  
   1063a:	c3                   	ret    

0001063b <hlt>:

static inline void hlt (void) {
   1063b:	55                   	push   %ebp
   1063c:	89 e5                	mov    %esp,%ebp
    __asm__ __volatile__("hlt");
   1063e:	f4                   	hlt    
}
   1063f:	90                   	nop
   10640:	5d                   	pop    %ebp
   10641:	c3                   	ret    

00010642 <dump_core_regs>:

void exception_handler_unknown(void);


 // 打印CPU寄存器相关内容
static void dump_core_regs(exception_frame_t * frame){
   10642:	55                   	push   %ebp
   10643:	89 e5                	mov    %esp,%ebp
   10645:	57                   	push   %edi
   10646:	56                   	push   %esi
   10647:	53                   	push   %ebx
   10648:	83 ec 1c             	sub    $0x1c,%esp
    log_printf("IRQ: %d, error code: %d",frame->num,frame->error_code);
   1064b:	8b 45 08             	mov    0x8(%ebp),%eax
   1064e:	8b 50 34             	mov    0x34(%eax),%edx
   10651:	8b 45 08             	mov    0x8(%ebp),%eax
   10654:	8b 40 30             	mov    0x30(%eax),%eax
   10657:	83 ec 04             	sub    $0x4,%esp
   1065a:	52                   	push   %edx
   1065b:	50                   	push   %eax
   1065c:	68 d0 18 01 00       	push   $0x118d0
   10661:	e8 50 11 00 00       	call   117b6 <log_printf>
   10666:	83 c4 10             	add    $0x10,%esp
    log_printf("CS: %d\nDS: %d\nES: %d\nSS: %d\nFS: %d\nGS: %d",
   10669:	8b 45 08             	mov    0x8(%ebp),%eax
   1066c:	8b 38                	mov    (%eax),%edi
   1066e:	8b 45 08             	mov    0x8(%ebp),%eax
   10671:	8b 70 04             	mov    0x4(%eax),%esi
   10674:	8b 45 08             	mov    0x8(%ebp),%eax
   10677:	8b 58 0c             	mov    0xc(%eax),%ebx
   1067a:	8b 45 08             	mov    0x8(%ebp),%eax
   1067d:	8b 48 08             	mov    0x8(%eax),%ecx
   10680:	8b 45 08             	mov    0x8(%ebp),%eax
   10683:	8b 50 0c             	mov    0xc(%eax),%edx
   10686:	8b 45 08             	mov    0x8(%ebp),%eax
   10689:	8b 40 3c             	mov    0x3c(%eax),%eax
   1068c:	83 ec 04             	sub    $0x4,%esp
   1068f:	57                   	push   %edi
   10690:	56                   	push   %esi
   10691:	53                   	push   %ebx
   10692:	51                   	push   %ecx
   10693:	52                   	push   %edx
   10694:	50                   	push   %eax
   10695:	68 e8 18 01 00       	push   $0x118e8
   1069a:	e8 17 11 00 00       	call   117b6 <log_printf>
   1069f:	83 c4 20             	add    $0x20,%esp
        frame->cs,frame->ds,frame->es,frame->ds,frame->fs,frame->gs);
    log_printf("EAX:0x%x\n"
   106a2:	8b 45 08             	mov    0x8(%ebp),%eax
   106a5:	8b 48 1c             	mov    0x1c(%eax),%ecx
   106a8:	8b 45 08             	mov    0x8(%ebp),%eax
   106ab:	8b 40 18             	mov    0x18(%eax),%eax
   106ae:	89 45 e4             	mov    %eax,-0x1c(%ebp)
   106b1:	8b 45 08             	mov    0x8(%ebp),%eax
   106b4:	8b 58 14             	mov    0x14(%eax),%ebx
   106b7:	89 5d e0             	mov    %ebx,-0x20(%ebp)
   106ba:	8b 45 08             	mov    0x8(%ebp),%eax
   106bd:	8b 78 10             	mov    0x10(%eax),%edi
   106c0:	8b 45 08             	mov    0x8(%ebp),%eax
   106c3:	8b 70 24             	mov    0x24(%eax),%esi
   106c6:	8b 45 08             	mov    0x8(%ebp),%eax
   106c9:	8b 58 28             	mov    0x28(%eax),%ebx
   106cc:	8b 45 08             	mov    0x8(%ebp),%eax
   106cf:	8b 50 20             	mov    0x20(%eax),%edx
   106d2:	8b 45 08             	mov    0x8(%ebp),%eax
   106d5:	8b 40 2c             	mov    0x2c(%eax),%eax
   106d8:	83 ec 0c             	sub    $0xc,%esp
   106db:	51                   	push   %ecx
   106dc:	ff 75 e4             	pushl  -0x1c(%ebp)
   106df:	ff 75 e0             	pushl  -0x20(%ebp)
   106e2:	57                   	push   %edi
   106e3:	56                   	push   %esi
   106e4:	53                   	push   %ebx
   106e5:	52                   	push   %edx
   106e6:	50                   	push   %eax
   106e7:	68 14 19 01 00       	push   $0x11914
   106ec:	e8 c5 10 00 00       	call   117b6 <log_printf>
   106f1:	83 c4 30             	add    $0x30,%esp
                "ESI:0x%x\n"
                "EBP:0x%x\n"
                "ESP:0x%x\n",
               frame->eax, frame->ebx, frame->ecx, frame->edx,
               frame->edi, frame->esi, frame->ebp, frame->esp);
    log_printf("EIP:0x%x\nEFLAGS:0x%x\n", frame->eip, frame->eflags);
   106f4:	8b 45 08             	mov    0x8(%ebp),%eax
   106f7:	8b 50 40             	mov    0x40(%eax),%edx
   106fa:	8b 45 08             	mov    0x8(%ebp),%eax
   106fd:	8b 40 38             	mov    0x38(%eax),%eax
   10700:	83 ec 04             	sub    $0x4,%esp
   10703:	52                   	push   %edx
   10704:	50                   	push   %eax
   10705:	68 5d 19 01 00       	push   $0x1195d
   1070a:	e8 a7 10 00 00       	call   117b6 <log_printf>
   1070f:	83 c4 10             	add    $0x10,%esp
}
   10712:	90                   	nop
   10713:	8d 65 f4             	lea    -0xc(%ebp),%esp
   10716:	5b                   	pop    %ebx
   10717:	5e                   	pop    %esi
   10718:	5f                   	pop    %edi
   10719:	5d                   	pop    %ebp
   1071a:	c3                   	ret    

0001071b <do_default_handler>:

static void do_default_handler(exception_frame_t * frame,const char * message) {
   1071b:	55                   	push   %ebp
   1071c:	89 e5                	mov    %esp,%ebp
   1071e:	83 ec 08             	sub    $0x8,%esp
    
    log_printf("----------------------------");
   10721:	83 ec 0c             	sub    $0xc,%esp
   10724:	68 73 19 01 00       	push   $0x11973
   10729:	e8 88 10 00 00       	call   117b6 <log_printf>
   1072e:	83 c4 10             	add    $0x10,%esp
    log_printf("IRQ/Exception happend: %s",message);
   10731:	83 ec 08             	sub    $0x8,%esp
   10734:	ff 75 0c             	pushl  0xc(%ebp)
   10737:	68 90 19 01 00       	push   $0x11990
   1073c:	e8 75 10 00 00       	call   117b6 <log_printf>
   10741:	83 c4 10             	add    $0x10,%esp
    dump_core_regs(frame);
   10744:	83 ec 0c             	sub    $0xc,%esp
   10747:	ff 75 08             	pushl  0x8(%ebp)
   1074a:	e8 f3 fe ff ff       	call   10642 <dump_core_regs>
   1074f:	83 c4 10             	add    $0x10,%esp
    for(;;){
        hlt();
   10752:	e8 e4 fe ff ff       	call   1063b <hlt>
   10757:	eb f9                	jmp    10752 <do_default_handler+0x37>

00010759 <do_handler_unknown>:
}



// 异常处理函数
void do_handler_unknown(exception_frame_t * frame){
   10759:	55                   	push   %ebp
   1075a:	89 e5                	mov    %esp,%ebp
   1075c:	83 ec 08             	sub    $0x8,%esp

    do_default_handler(frame,"unknown exception");
   1075f:	83 ec 08             	sub    $0x8,%esp
   10762:	68 aa 19 01 00       	push   $0x119aa
   10767:	ff 75 08             	pushl  0x8(%ebp)
   1076a:	e8 ac ff ff ff       	call   1071b <do_default_handler>
   1076f:	83 c4 10             	add    $0x10,%esp

}
   10772:	90                   	nop
   10773:	c9                   	leave  
   10774:	c3                   	ret    

00010775 <do_handler_divider>:
void do_handler_divider(exception_frame_t * frame){
   10775:	55                   	push   %ebp
   10776:	89 e5                	mov    %esp,%ebp
   10778:	83 ec 08             	sub    $0x8,%esp
    do_default_handler(frame,"Divder exception");
   1077b:	83 ec 08             	sub    $0x8,%esp
   1077e:	68 bc 19 01 00       	push   $0x119bc
   10783:	ff 75 08             	pushl  0x8(%ebp)
   10786:	e8 90 ff ff ff       	call   1071b <do_default_handler>
   1078b:	83 c4 10             	add    $0x10,%esp
}
   1078e:	90                   	nop
   1078f:	c9                   	leave  
   10790:	c3                   	ret    

00010791 <do_handler_Debug>:
void do_handler_Debug(exception_frame_t * frame) {
   10791:	55                   	push   %ebp
   10792:	89 e5                	mov    %esp,%ebp
   10794:	83 ec 08             	sub    $0x8,%esp
	do_default_handler(frame, "Debug Exception");
   10797:	83 ec 08             	sub    $0x8,%esp
   1079a:	68 cd 19 01 00       	push   $0x119cd
   1079f:	ff 75 08             	pushl  0x8(%ebp)
   107a2:	e8 74 ff ff ff       	call   1071b <do_default_handler>
   107a7:	83 c4 10             	add    $0x10,%esp
}
   107aa:	90                   	nop
   107ab:	c9                   	leave  
   107ac:	c3                   	ret    

000107ad <do_handler_NMI>:
void do_handler_NMI(exception_frame_t * frame) {
   107ad:	55                   	push   %ebp
   107ae:	89 e5                	mov    %esp,%ebp
   107b0:	83 ec 08             	sub    $0x8,%esp
	do_default_handler(frame, "NMI Interrupt.");
   107b3:	83 ec 08             	sub    $0x8,%esp
   107b6:	68 dd 19 01 00       	push   $0x119dd
   107bb:	ff 75 08             	pushl  0x8(%ebp)
   107be:	e8 58 ff ff ff       	call   1071b <do_default_handler>
   107c3:	83 c4 10             	add    $0x10,%esp
}
   107c6:	90                   	nop
   107c7:	c9                   	leave  
   107c8:	c3                   	ret    

000107c9 <do_handler_breakpoint>:
void do_handler_breakpoint(exception_frame_t * frame) {
   107c9:	55                   	push   %ebp
   107ca:	89 e5                	mov    %esp,%ebp
   107cc:	83 ec 08             	sub    $0x8,%esp
	do_default_handler(frame, "Breakpoint.");
   107cf:	83 ec 08             	sub    $0x8,%esp
   107d2:	68 ec 19 01 00       	push   $0x119ec
   107d7:	ff 75 08             	pushl  0x8(%ebp)
   107da:	e8 3c ff ff ff       	call   1071b <do_default_handler>
   107df:	83 c4 10             	add    $0x10,%esp
}
   107e2:	90                   	nop
   107e3:	c9                   	leave  
   107e4:	c3                   	ret    

000107e5 <do_handler_overflow>:
void do_handler_overflow(exception_frame_t * frame) {
   107e5:	55                   	push   %ebp
   107e6:	89 e5                	mov    %esp,%ebp
   107e8:	83 ec 08             	sub    $0x8,%esp
	do_default_handler(frame, "Overflow.");
   107eb:	83 ec 08             	sub    $0x8,%esp
   107ee:	68 f8 19 01 00       	push   $0x119f8
   107f3:	ff 75 08             	pushl  0x8(%ebp)
   107f6:	e8 20 ff ff ff       	call   1071b <do_default_handler>
   107fb:	83 c4 10             	add    $0x10,%esp
}
   107fe:	90                   	nop
   107ff:	c9                   	leave  
   10800:	c3                   	ret    

00010801 <do_handler_bound_range>:
void do_handler_bound_range(exception_frame_t * frame) {
   10801:	55                   	push   %ebp
   10802:	89 e5                	mov    %esp,%ebp
   10804:	83 ec 08             	sub    $0x8,%esp
	do_default_handler(frame, "BOUND Range Exceeded.");
   10807:	83 ec 08             	sub    $0x8,%esp
   1080a:	68 02 1a 01 00       	push   $0x11a02
   1080f:	ff 75 08             	pushl  0x8(%ebp)
   10812:	e8 04 ff ff ff       	call   1071b <do_default_handler>
   10817:	83 c4 10             	add    $0x10,%esp
}
   1081a:	90                   	nop
   1081b:	c9                   	leave  
   1081c:	c3                   	ret    

0001081d <do_handler_invalid_opcode>:
void do_handler_invalid_opcode(exception_frame_t * frame) {
   1081d:	55                   	push   %ebp
   1081e:	89 e5                	mov    %esp,%ebp
   10820:	83 ec 08             	sub    $0x8,%esp
	do_default_handler(frame, "Invalid Opcode.");
   10823:	83 ec 08             	sub    $0x8,%esp
   10826:	68 18 1a 01 00       	push   $0x11a18
   1082b:	ff 75 08             	pushl  0x8(%ebp)
   1082e:	e8 e8 fe ff ff       	call   1071b <do_default_handler>
   10833:	83 c4 10             	add    $0x10,%esp
}
   10836:	90                   	nop
   10837:	c9                   	leave  
   10838:	c3                   	ret    

00010839 <do_handler_device_unavailable>:
void do_handler_device_unavailable(exception_frame_t * frame) {
   10839:	55                   	push   %ebp
   1083a:	89 e5                	mov    %esp,%ebp
   1083c:	83 ec 08             	sub    $0x8,%esp
	do_default_handler(frame, "Device Not Available.");
   1083f:	83 ec 08             	sub    $0x8,%esp
   10842:	68 28 1a 01 00       	push   $0x11a28
   10847:	ff 75 08             	pushl  0x8(%ebp)
   1084a:	e8 cc fe ff ff       	call   1071b <do_default_handler>
   1084f:	83 c4 10             	add    $0x10,%esp
}
   10852:	90                   	nop
   10853:	c9                   	leave  
   10854:	c3                   	ret    

00010855 <do_handler_double_fault>:
void do_handler_double_fault(exception_frame_t * frame) {
   10855:	55                   	push   %ebp
   10856:	89 e5                	mov    %esp,%ebp
   10858:	83 ec 08             	sub    $0x8,%esp
	do_default_handler(frame, "Double Fault.");
   1085b:	83 ec 08             	sub    $0x8,%esp
   1085e:	68 3e 1a 01 00       	push   $0x11a3e
   10863:	ff 75 08             	pushl  0x8(%ebp)
   10866:	e8 b0 fe ff ff       	call   1071b <do_default_handler>
   1086b:	83 c4 10             	add    $0x10,%esp
}
   1086e:	90                   	nop
   1086f:	c9                   	leave  
   10870:	c3                   	ret    

00010871 <do_handler_invalid_tss>:
void do_handler_invalid_tss(exception_frame_t * frame) {
   10871:	55                   	push   %ebp
   10872:	89 e5                	mov    %esp,%ebp
   10874:	83 ec 08             	sub    $0x8,%esp
	do_default_handler(frame, "Invalid TSS");
   10877:	83 ec 08             	sub    $0x8,%esp
   1087a:	68 4c 1a 01 00       	push   $0x11a4c
   1087f:	ff 75 08             	pushl  0x8(%ebp)
   10882:	e8 94 fe ff ff       	call   1071b <do_default_handler>
   10887:	83 c4 10             	add    $0x10,%esp
}
   1088a:	90                   	nop
   1088b:	c9                   	leave  
   1088c:	c3                   	ret    

0001088d <do_handler_segment_not_present>:
void do_handler_segment_not_present(exception_frame_t * frame) {
   1088d:	55                   	push   %ebp
   1088e:	89 e5                	mov    %esp,%ebp
   10890:	83 ec 08             	sub    $0x8,%esp
	do_default_handler(frame, "Segment Not Present.");
   10893:	83 ec 08             	sub    $0x8,%esp
   10896:	68 58 1a 01 00       	push   $0x11a58
   1089b:	ff 75 08             	pushl  0x8(%ebp)
   1089e:	e8 78 fe ff ff       	call   1071b <do_default_handler>
   108a3:	83 c4 10             	add    $0x10,%esp
}
   108a6:	90                   	nop
   108a7:	c9                   	leave  
   108a8:	c3                   	ret    

000108a9 <do_handler_stack_segment_fault>:
void do_handler_stack_segment_fault(exception_frame_t * frame) {
   108a9:	55                   	push   %ebp
   108aa:	89 e5                	mov    %esp,%ebp
   108ac:	83 ec 08             	sub    $0x8,%esp
	do_default_handler(frame, "Stack-Segment Fault.");
   108af:	83 ec 08             	sub    $0x8,%esp
   108b2:	68 6d 1a 01 00       	push   $0x11a6d
   108b7:	ff 75 08             	pushl  0x8(%ebp)
   108ba:	e8 5c fe ff ff       	call   1071b <do_default_handler>
   108bf:	83 c4 10             	add    $0x10,%esp
}
   108c2:	90                   	nop
   108c3:	c9                   	leave  
   108c4:	c3                   	ret    

000108c5 <do_handler_general_protection>:
void do_handler_general_protection(exception_frame_t * frame) {
   108c5:	55                   	push   %ebp
   108c6:	89 e5                	mov    %esp,%ebp
   108c8:	83 ec 08             	sub    $0x8,%esp
	do_default_handler(frame, "General Protection.");
   108cb:	83 ec 08             	sub    $0x8,%esp
   108ce:	68 82 1a 01 00       	push   $0x11a82
   108d3:	ff 75 08             	pushl  0x8(%ebp)
   108d6:	e8 40 fe ff ff       	call   1071b <do_default_handler>
   108db:	83 c4 10             	add    $0x10,%esp
}
   108de:	90                   	nop
   108df:	c9                   	leave  
   108e0:	c3                   	ret    

000108e1 <do_handler_page_fault>:
void do_handler_page_fault(exception_frame_t * frame) {
   108e1:	55                   	push   %ebp
   108e2:	89 e5                	mov    %esp,%ebp
   108e4:	83 ec 08             	sub    $0x8,%esp
	do_default_handler(frame, "Page Fault.");
   108e7:	83 ec 08             	sub    $0x8,%esp
   108ea:	68 96 1a 01 00       	push   $0x11a96
   108ef:	ff 75 08             	pushl  0x8(%ebp)
   108f2:	e8 24 fe ff ff       	call   1071b <do_default_handler>
   108f7:	83 c4 10             	add    $0x10,%esp
}
   108fa:	90                   	nop
   108fb:	c9                   	leave  
   108fc:	c3                   	ret    

000108fd <do_handler_fpu_error>:
void do_handler_fpu_error(exception_frame_t * frame) {
   108fd:	55                   	push   %ebp
   108fe:	89 e5                	mov    %esp,%ebp
   10900:	83 ec 08             	sub    $0x8,%esp
	do_default_handler(frame, "X87 FPU Floating Point Error.");
   10903:	83 ec 08             	sub    $0x8,%esp
   10906:	68 a2 1a 01 00       	push   $0x11aa2
   1090b:	ff 75 08             	pushl  0x8(%ebp)
   1090e:	e8 08 fe ff ff       	call   1071b <do_default_handler>
   10913:	83 c4 10             	add    $0x10,%esp
}
   10916:	90                   	nop
   10917:	c9                   	leave  
   10918:	c3                   	ret    

00010919 <do_handler_alignment_check>:
void do_handler_alignment_check(exception_frame_t * frame) {
   10919:	55                   	push   %ebp
   1091a:	89 e5                	mov    %esp,%ebp
   1091c:	83 ec 08             	sub    $0x8,%esp
	do_default_handler(frame, "Alignment Check.");
   1091f:	83 ec 08             	sub    $0x8,%esp
   10922:	68 c0 1a 01 00       	push   $0x11ac0
   10927:	ff 75 08             	pushl  0x8(%ebp)
   1092a:	e8 ec fd ff ff       	call   1071b <do_default_handler>
   1092f:	83 c4 10             	add    $0x10,%esp
}
   10932:	90                   	nop
   10933:	c9                   	leave  
   10934:	c3                   	ret    

00010935 <do_handler_machine_check>:
void do_handler_machine_check(exception_frame_t * frame) {
   10935:	55                   	push   %ebp
   10936:	89 e5                	mov    %esp,%ebp
   10938:	83 ec 08             	sub    $0x8,%esp
	do_default_handler(frame, "Machine Check.");
   1093b:	83 ec 08             	sub    $0x8,%esp
   1093e:	68 d1 1a 01 00       	push   $0x11ad1
   10943:	ff 75 08             	pushl  0x8(%ebp)
   10946:	e8 d0 fd ff ff       	call   1071b <do_default_handler>
   1094b:	83 c4 10             	add    $0x10,%esp
}
   1094e:	90                   	nop
   1094f:	c9                   	leave  
   10950:	c3                   	ret    

00010951 <do_handler_smd_exception>:
void do_handler_smd_exception(exception_frame_t * frame) {
   10951:	55                   	push   %ebp
   10952:	89 e5                	mov    %esp,%ebp
   10954:	83 ec 08             	sub    $0x8,%esp
	do_default_handler(frame, "SIMD Floating Point Exception.");
   10957:	83 ec 08             	sub    $0x8,%esp
   1095a:	68 e0 1a 01 00       	push   $0x11ae0
   1095f:	ff 75 08             	pushl  0x8(%ebp)
   10962:	e8 b4 fd ff ff       	call   1071b <do_default_handler>
   10967:	83 c4 10             	add    $0x10,%esp
}
   1096a:	90                   	nop
   1096b:	c9                   	leave  
   1096c:	c3                   	ret    

0001096d <do_handler_virtual_exception>:
void do_handler_virtual_exception(exception_frame_t * frame) {
   1096d:	55                   	push   %ebp
   1096e:	89 e5                	mov    %esp,%ebp
   10970:	83 ec 08             	sub    $0x8,%esp
	do_default_handler(frame, "Virtualization Exception.");
   10973:	83 ec 08             	sub    $0x8,%esp
   10976:	68 ff 1a 01 00       	push   $0x11aff
   1097b:	ff 75 08             	pushl  0x8(%ebp)
   1097e:	e8 98 fd ff ff       	call   1071b <do_default_handler>
   10983:	83 c4 10             	add    $0x10,%esp
}
   10986:	90                   	nop
   10987:	c9                   	leave  
   10988:	c3                   	ret    

00010989 <init_pic>:

static gate_desc_t idt_table[IDE_TABLE_NR];

//初始化中断控制器
//硬件相关 --- 待解决
static void init_pic(void) {
   10989:	55                   	push   %ebp
   1098a:	89 e5                	mov    %esp,%ebp
    // 边缘触发，级联，需要配置icw4, 8086模式
    outb(PIC0_ICW1, PIC_ICW1_ALWAYS_1 | PIC_ICW1_ICW4);
   1098c:	6a 11                	push   $0x11
   1098e:	6a 20                	push   $0x20
   10990:	e8 51 fc ff ff       	call   105e6 <outb>
   10995:	83 c4 08             	add    $0x8,%esp

    // 对应的中断号起始序号0x20
    outb(PIC0_ICW2, IRQ_PIC_START);
   10998:	6a 20                	push   $0x20
   1099a:	6a 21                	push   $0x21
   1099c:	e8 45 fc ff ff       	call   105e6 <outb>
   109a1:	83 c4 08             	add    $0x8,%esp

    // 主片IRQ2有从片
    outb(PIC0_ICW3, 1 << 2);
   109a4:	6a 04                	push   $0x4
   109a6:	6a 21                	push   $0x21
   109a8:	e8 39 fc ff ff       	call   105e6 <outb>
   109ad:	83 c4 08             	add    $0x8,%esp

    // 普通全嵌套、非缓冲、非自动结束、8086模式
    outb(PIC0_ICW4, PIC_ICW4_8086);
   109b0:	6a 01                	push   $0x1
   109b2:	6a 21                	push   $0x21
   109b4:	e8 2d fc ff ff       	call   105e6 <outb>
   109b9:	83 c4 08             	add    $0x8,%esp

    // 边缘触发，级联，需要配置icw4, 8086模式
    outb(PIC1_ICW1, PIC_ICW1_ICW4 | PIC_ICW1_ALWAYS_1);
   109bc:	6a 11                	push   $0x11
   109be:	68 a0 00 00 00       	push   $0xa0
   109c3:	e8 1e fc ff ff       	call   105e6 <outb>
   109c8:	83 c4 08             	add    $0x8,%esp

    // 起始中断序号，要加上8
    outb(PIC1_ICW2, IRQ_PIC_START + 8);
   109cb:	6a 28                	push   $0x28
   109cd:	68 a1 00 00 00       	push   $0xa1
   109d2:	e8 0f fc ff ff       	call   105e6 <outb>
   109d7:	83 c4 08             	add    $0x8,%esp

    // 没有从片，连接到主片的IRQ2上
    outb(PIC1_ICW3, 2);
   109da:	6a 02                	push   $0x2
   109dc:	68 a1 00 00 00       	push   $0xa1
   109e1:	e8 00 fc ff ff       	call   105e6 <outb>
   109e6:	83 c4 08             	add    $0x8,%esp

    // 普通全嵌套、非缓冲、非自动结束、8086模式
    outb(PIC1_ICW4, PIC_ICW4_8086);
   109e9:	6a 01                	push   $0x1
   109eb:	68 a1 00 00 00       	push   $0xa1
   109f0:	e8 f1 fb ff ff       	call   105e6 <outb>
   109f5:	83 c4 08             	add    $0x8,%esp

    // 禁止所有中断, 允许从PIC1传来的中断
    outb(PIC0_IMR, 0xFF & ~(1 << 2));
   109f8:	68 fb 00 00 00       	push   $0xfb
   109fd:	6a 21                	push   $0x21
   109ff:	e8 e2 fb ff ff       	call   105e6 <outb>
   10a04:	83 c4 08             	add    $0x8,%esp
    outb(PIC1_IMR, 0xFF);
   10a07:	68 ff 00 00 00       	push   $0xff
   10a0c:	68 a1 00 00 00       	push   $0xa1
   10a11:	e8 d0 fb ff ff       	call   105e6 <outb>
   10a16:	83 c4 08             	add    $0x8,%esp
}
   10a19:	90                   	nop
   10a1a:	c9                   	leave  
   10a1b:	c3                   	ret    

00010a1c <irq_init>:


void irq_init(void){ 
   10a1c:	55                   	push   %ebp
   10a1d:	89 e5                	mov    %esp,%ebp
   10a1f:	83 ec 18             	sub    $0x18,%esp

    for(int i = 0;i < IDE_TABLE_NR; i++){
   10a22:	c7 45 f4 00 00 00 00 	movl   $0x0,-0xc(%ebp)
   10a29:	eb 25                	jmp    10a50 <irq_init+0x34>
        gate_desc_set(idt_table + i, KERNEL_SELECTOR_CS, (uint32_t)exception_handler_unknown, 
   10a2b:	ba 28 00 01 00       	mov    $0x10028,%edx
   10a30:	8b 45 f4             	mov    -0xc(%ebp),%eax
   10a33:	c1 e0 03             	shl    $0x3,%eax
   10a36:	05 20 24 01 00       	add    $0x12420,%eax
   10a3b:	68 00 8e 00 00       	push   $0x8e00
   10a40:	52                   	push   %edx
   10a41:	6a 08                	push   $0x8
   10a43:	50                   	push   %eax
   10a44:	e8 d5 fa ff ff       	call   1051e <gate_desc_set>
   10a49:	83 c4 10             	add    $0x10,%esp
    for(int i = 0;i < IDE_TABLE_NR; i++){
   10a4c:	83 45 f4 01          	addl   $0x1,-0xc(%ebp)
   10a50:	83 7d f4 7f          	cmpl   $0x7f,-0xc(%ebp)
   10a54:	7e d5                	jle    10a2b <irq_init+0xf>
        GATE_TYPE_IDT | GATE_P_PRESENT | GATE_DPL0);
    }
    // 设置异常处理接口
    irq_install(IRQ0_DE, exception_handler_divider);
   10a56:	83 ec 08             	sub    $0x8,%esp
   10a59:	68 47 00 01 00       	push   $0x10047
   10a5e:	6a 00                	push   $0x0
   10a60:	e8 65 01 00 00       	call   10bca <irq_install>
   10a65:	83 c4 10             	add    $0x10,%esp
	irq_install(IRQ1_DB, exception_handler_Debug);
   10a68:	83 ec 08             	sub    $0x8,%esp
   10a6b:	68 66 00 01 00       	push   $0x10066
   10a70:	6a 01                	push   $0x1
   10a72:	e8 53 01 00 00       	call   10bca <irq_install>
   10a77:	83 c4 10             	add    $0x10,%esp
	irq_install(IRQ2_NMI, exception_handler_NMI);
   10a7a:	83 ec 08             	sub    $0x8,%esp
   10a7d:	68 85 00 01 00       	push   $0x10085
   10a82:	6a 02                	push   $0x2
   10a84:	e8 41 01 00 00       	call   10bca <irq_install>
   10a89:	83 c4 10             	add    $0x10,%esp
	irq_install(IRQ3_BP, exception_handler_breakpoint);
   10a8c:	83 ec 08             	sub    $0x8,%esp
   10a8f:	68 a4 00 01 00       	push   $0x100a4
   10a94:	6a 03                	push   $0x3
   10a96:	e8 2f 01 00 00       	call   10bca <irq_install>
   10a9b:	83 c4 10             	add    $0x10,%esp
	irq_install(IRQ4_OF, exception_handler_overflow);
   10a9e:	83 ec 08             	sub    $0x8,%esp
   10aa1:	68 c3 00 01 00       	push   $0x100c3
   10aa6:	6a 04                	push   $0x4
   10aa8:	e8 1d 01 00 00       	call   10bca <irq_install>
   10aad:	83 c4 10             	add    $0x10,%esp
	irq_install(IRQ5_BR, exception_handler_bound_range);
   10ab0:	83 ec 08             	sub    $0x8,%esp
   10ab3:	68 e2 00 01 00       	push   $0x100e2
   10ab8:	6a 05                	push   $0x5
   10aba:	e8 0b 01 00 00       	call   10bca <irq_install>
   10abf:	83 c4 10             	add    $0x10,%esp
	irq_install(IRQ6_UD, exception_handler_invalid_opcode);
   10ac2:	83 ec 08             	sub    $0x8,%esp
   10ac5:	68 01 01 01 00       	push   $0x10101
   10aca:	6a 06                	push   $0x6
   10acc:	e8 f9 00 00 00       	call   10bca <irq_install>
   10ad1:	83 c4 10             	add    $0x10,%esp
	irq_install(IRQ7_NM, exception_handler_device_unavailable);
   10ad4:	83 ec 08             	sub    $0x8,%esp
   10ad7:	68 20 01 01 00       	push   $0x10120
   10adc:	6a 07                	push   $0x7
   10ade:	e8 e7 00 00 00       	call   10bca <irq_install>
   10ae3:	83 c4 10             	add    $0x10,%esp
	irq_install(IRQ8_DF, exception_handler_double_fault);
   10ae6:	83 ec 08             	sub    $0x8,%esp
   10ae9:	68 3f 01 01 00       	push   $0x1013f
   10aee:	6a 08                	push   $0x8
   10af0:	e8 d5 00 00 00       	call   10bca <irq_install>
   10af5:	83 c4 10             	add    $0x10,%esp
	irq_install(IRQ10_TS, exception_handler_invalid_tss);
   10af8:	83 ec 08             	sub    $0x8,%esp
   10afb:	68 5c 01 01 00       	push   $0x1015c
   10b00:	6a 0a                	push   $0xa
   10b02:	e8 c3 00 00 00       	call   10bca <irq_install>
   10b07:	83 c4 10             	add    $0x10,%esp
	irq_install(IRQ11_NP, exception_handler_segment_not_present);
   10b0a:	83 ec 08             	sub    $0x8,%esp
   10b0d:	68 79 01 01 00       	push   $0x10179
   10b12:	6a 0b                	push   $0xb
   10b14:	e8 b1 00 00 00       	call   10bca <irq_install>
   10b19:	83 c4 10             	add    $0x10,%esp
	irq_install(IRQ12_SS, exception_handler_stack_segment_fault);
   10b1c:	83 ec 08             	sub    $0x8,%esp
   10b1f:	68 96 01 01 00       	push   $0x10196
   10b24:	6a 0c                	push   $0xc
   10b26:	e8 9f 00 00 00       	call   10bca <irq_install>
   10b2b:	83 c4 10             	add    $0x10,%esp
	irq_install(IRQ13_GP, exception_handler_general_protection);
   10b2e:	83 ec 08             	sub    $0x8,%esp
   10b31:	68 b3 01 01 00       	push   $0x101b3
   10b36:	6a 0d                	push   $0xd
   10b38:	e8 8d 00 00 00       	call   10bca <irq_install>
   10b3d:	83 c4 10             	add    $0x10,%esp
	irq_install(IRQ14_PF, exception_handler_page_fault);
   10b40:	83 ec 08             	sub    $0x8,%esp
   10b43:	68 d0 01 01 00       	push   $0x101d0
   10b48:	6a 0e                	push   $0xe
   10b4a:	e8 7b 00 00 00       	call   10bca <irq_install>
   10b4f:	83 c4 10             	add    $0x10,%esp
	irq_install(IRQ16_MF, exception_handler_fpu_error);
   10b52:	83 ec 08             	sub    $0x8,%esp
   10b55:	68 ed 01 01 00       	push   $0x101ed
   10b5a:	6a 10                	push   $0x10
   10b5c:	e8 69 00 00 00       	call   10bca <irq_install>
   10b61:	83 c4 10             	add    $0x10,%esp
	irq_install(IRQ17_AC, exception_handler_alignment_check);
   10b64:	83 ec 08             	sub    $0x8,%esp
   10b67:	68 0c 02 01 00       	push   $0x1020c
   10b6c:	6a 11                	push   $0x11
   10b6e:	e8 57 00 00 00       	call   10bca <irq_install>
   10b73:	83 c4 10             	add    $0x10,%esp
	irq_install(IRQ18_MC, exception_handler_machine_check);
   10b76:	83 ec 08             	sub    $0x8,%esp
   10b79:	68 29 02 01 00       	push   $0x10229
   10b7e:	6a 12                	push   $0x12
   10b80:	e8 45 00 00 00       	call   10bca <irq_install>
   10b85:	83 c4 10             	add    $0x10,%esp
	irq_install(IRQ19_XM, exception_handler_smd_exception);
   10b88:	83 ec 08             	sub    $0x8,%esp
   10b8b:	68 48 02 01 00       	push   $0x10248
   10b90:	6a 13                	push   $0x13
   10b92:	e8 33 00 00 00       	call   10bca <irq_install>
   10b97:	83 c4 10             	add    $0x10,%esp
	irq_install(IRQ20_VE, exception_handler_virtual_exception);
   10b9a:	83 ec 08             	sub    $0x8,%esp
   10b9d:	68 67 02 01 00       	push   $0x10267
   10ba2:	6a 14                	push   $0x14
   10ba4:	e8 21 00 00 00       	call   10bca <irq_install>
   10ba9:	83 c4 10             	add    $0x10,%esp
    
    lidt((uint32_t)idt_table,sizeof(idt_table));
   10bac:	b8 20 24 01 00       	mov    $0x12420,%eax
   10bb1:	83 ec 08             	sub    $0x8,%esp
   10bb4:	68 00 04 00 00       	push   $0x400
   10bb9:	50                   	push   %eax
   10bba:	e8 54 fa ff ff       	call   10613 <lidt>
   10bbf:	83 c4 10             	add    $0x10,%esp

//初始化中断控制器
    init_pic();
   10bc2:	e8 c2 fd ff ff       	call   10989 <init_pic>
}
   10bc7:	90                   	nop
   10bc8:	c9                   	leave  
   10bc9:	c3                   	ret    

00010bca <irq_install>:


int irq_install(int irq_num,irq_handler_t handler){
   10bca:	55                   	push   %ebp
   10bcb:	89 e5                	mov    %esp,%ebp
   10bcd:	83 ec 08             	sub    $0x8,%esp

    if(irq_num >= IDE_TABLE_NR){
   10bd0:	83 7d 08 7f          	cmpl   $0x7f,0x8(%ebp)
   10bd4:	7e 07                	jle    10bdd <irq_install+0x13>
        return -1;
   10bd6:	b8 ff ff ff ff       	mov    $0xffffffff,%eax
   10bdb:	eb 25                	jmp    10c02 <irq_install+0x38>
    }

    gate_desc_set(idt_table+irq_num,KERNEL_SELECTOR_CS,
   10bdd:	8b 45 0c             	mov    0xc(%ebp),%eax
   10be0:	8b 55 08             	mov    0x8(%ebp),%edx
   10be3:	c1 e2 03             	shl    $0x3,%edx
   10be6:	81 c2 20 24 01 00    	add    $0x12420,%edx
   10bec:	68 00 8e 00 00       	push   $0x8e00
   10bf1:	50                   	push   %eax
   10bf2:	6a 08                	push   $0x8
   10bf4:	52                   	push   %edx
   10bf5:	e8 24 f9 ff ff       	call   1051e <gate_desc_set>
   10bfa:	83 c4 10             	add    $0x10,%esp
    (uint32_t)handler,GATE_TYPE_IDT | GATE_P_PRESENT | GATE_DPL0);

    return 0;
   10bfd:	b8 00 00 00 00       	mov    $0x0,%eax
}
   10c02:	c9                   	leave  
   10c03:	c3                   	ret    

00010c04 <irq_enable>:

// 设置 8259 的 IMR寄存器
void irq_enable (int irq_num) {
   10c04:	55                   	push   %ebp
   10c05:	89 e5                	mov    %esp,%ebp
   10c07:	53                   	push   %ebx
   10c08:	83 ec 10             	sub    $0x10,%esp
    if (irq_num < IRQ_PIC_START) {
   10c0b:	83 7d 08 1f          	cmpl   $0x1f,0x8(%ebp)
   10c0f:	7e 78                	jle    10c89 <irq_enable+0x85>
        return;
    }

    irq_num -= IRQ_PIC_START;
   10c11:	83 6d 08 20          	subl   $0x20,0x8(%ebp)
    if (irq_num < 8) {
   10c15:	83 7d 08 07          	cmpl   $0x7,0x8(%ebp)
   10c19:	7f 32                	jg     10c4d <irq_enable+0x49>
        uint8_t mask = inb(PIC0_IMR) & ~(1 << irq_num);
   10c1b:	6a 21                	push   $0x21
   10c1d:	e8 a7 f9 ff ff       	call   105c9 <inb>
   10c22:	83 c4 04             	add    $0x4,%esp
   10c25:	89 c2                	mov    %eax,%edx
   10c27:	8b 45 08             	mov    0x8(%ebp),%eax
   10c2a:	bb 01 00 00 00       	mov    $0x1,%ebx
   10c2f:	89 c1                	mov    %eax,%ecx
   10c31:	d3 e3                	shl    %cl,%ebx
   10c33:	89 d8                	mov    %ebx,%eax
   10c35:	f7 d0                	not    %eax
   10c37:	21 d0                	and    %edx,%eax
   10c39:	88 45 fa             	mov    %al,-0x6(%ebp)
        outb(PIC0_IMR,mask);
   10c3c:	0f b6 45 fa          	movzbl -0x6(%ebp),%eax
   10c40:	50                   	push   %eax
   10c41:	6a 21                	push   $0x21
   10c43:	e8 9e f9 ff ff       	call   105e6 <outb>
   10c48:	83 c4 08             	add    $0x8,%esp
   10c4b:	eb 3d                	jmp    10c8a <irq_enable+0x86>
    }else{
        irq_num -= 8;
   10c4d:	83 6d 08 08          	subl   $0x8,0x8(%ebp)
        uint8_t mask = inb(PIC1_IMR) & ~(1 << irq_num);
   10c51:	68 a1 00 00 00       	push   $0xa1
   10c56:	e8 6e f9 ff ff       	call   105c9 <inb>
   10c5b:	83 c4 04             	add    $0x4,%esp
   10c5e:	89 c2                	mov    %eax,%edx
   10c60:	8b 45 08             	mov    0x8(%ebp),%eax
   10c63:	bb 01 00 00 00       	mov    $0x1,%ebx
   10c68:	89 c1                	mov    %eax,%ecx
   10c6a:	d3 e3                	shl    %cl,%ebx
   10c6c:	89 d8                	mov    %ebx,%eax
   10c6e:	f7 d0                	not    %eax
   10c70:	21 d0                	and    %edx,%eax
   10c72:	88 45 fb             	mov    %al,-0x5(%ebp)
        outb(PIC1_IMR,mask);
   10c75:	0f b6 45 fb          	movzbl -0x5(%ebp),%eax
   10c79:	50                   	push   %eax
   10c7a:	68 a1 00 00 00       	push   $0xa1
   10c7f:	e8 62 f9 ff ff       	call   105e6 <outb>
   10c84:	83 c4 08             	add    $0x8,%esp
   10c87:	eb 01                	jmp    10c8a <irq_enable+0x86>
        return;
   10c89:	90                   	nop
    }
}
   10c8a:	8b 5d fc             	mov    -0x4(%ebp),%ebx
   10c8d:	c9                   	leave  
   10c8e:	c3                   	ret    

00010c8f <irq_disable>:
void irq_disable (int irq_num) {
   10c8f:	55                   	push   %ebp
   10c90:	89 e5                	mov    %esp,%ebp
   10c92:	53                   	push   %ebx
   10c93:	83 ec 10             	sub    $0x10,%esp
    
    if (irq_num < IRQ_PIC_START) {
   10c96:	83 7d 08 1f          	cmpl   $0x1f,0x8(%ebp)
   10c9a:	7e 74                	jle    10d10 <irq_disable+0x81>
        return;
    }

    irq_num -= IRQ_PIC_START;
   10c9c:	83 6d 08 20          	subl   $0x20,0x8(%ebp)
    if (irq_num < 8) {
   10ca0:	83 7d 08 07          	cmpl   $0x7,0x8(%ebp)
   10ca4:	7f 30                	jg     10cd6 <irq_disable+0x47>
        uint8_t mask = inb(PIC0_IMR) | (1 << irq_num);
   10ca6:	6a 21                	push   $0x21
   10ca8:	e8 1c f9 ff ff       	call   105c9 <inb>
   10cad:	83 c4 04             	add    $0x4,%esp
   10cb0:	89 c3                	mov    %eax,%ebx
   10cb2:	8b 45 08             	mov    0x8(%ebp),%eax
   10cb5:	ba 01 00 00 00       	mov    $0x1,%edx
   10cba:	89 c1                	mov    %eax,%ecx
   10cbc:	d3 e2                	shl    %cl,%edx
   10cbe:	89 d0                	mov    %edx,%eax
   10cc0:	09 d8                	or     %ebx,%eax
   10cc2:	88 45 fa             	mov    %al,-0x6(%ebp)
        outb(PIC0_IMR,mask);
   10cc5:	0f b6 45 fa          	movzbl -0x6(%ebp),%eax
   10cc9:	50                   	push   %eax
   10cca:	6a 21                	push   $0x21
   10ccc:	e8 15 f9 ff ff       	call   105e6 <outb>
   10cd1:	83 c4 08             	add    $0x8,%esp
   10cd4:	eb 3b                	jmp    10d11 <irq_disable+0x82>
    }else{
        irq_num -= 8;
   10cd6:	83 6d 08 08          	subl   $0x8,0x8(%ebp)
        uint8_t mask = inb(PIC1_IMR) | (1 << irq_num);
   10cda:	68 a1 00 00 00       	push   $0xa1
   10cdf:	e8 e5 f8 ff ff       	call   105c9 <inb>
   10ce4:	83 c4 04             	add    $0x4,%esp
   10ce7:	89 c3                	mov    %eax,%ebx
   10ce9:	8b 45 08             	mov    0x8(%ebp),%eax
   10cec:	ba 01 00 00 00       	mov    $0x1,%edx
   10cf1:	89 c1                	mov    %eax,%ecx
   10cf3:	d3 e2                	shl    %cl,%edx
   10cf5:	89 d0                	mov    %edx,%eax
   10cf7:	09 d8                	or     %ebx,%eax
   10cf9:	88 45 fb             	mov    %al,-0x5(%ebp)
        outb(PIC1_IMR,mask);
   10cfc:	0f b6 45 fb          	movzbl -0x5(%ebp),%eax
   10d00:	50                   	push   %eax
   10d01:	68 a1 00 00 00       	push   $0xa1
   10d06:	e8 db f8 ff ff       	call   105e6 <outb>
   10d0b:	83 c4 08             	add    $0x8,%esp
   10d0e:	eb 01                	jmp    10d11 <irq_disable+0x82>
        return;
   10d10:	90                   	nop
    }
}
   10d11:	8b 5d fc             	mov    -0x4(%ebp),%ebx
   10d14:	c9                   	leave  
   10d15:	c3                   	ret    

00010d16 <irq_disable_global>:


// 将eflags中的IF位设置为0
void irq_disable_global (void) {
   10d16:	55                   	push   %ebp
   10d17:	89 e5                	mov    %esp,%ebp
    cli();
   10d19:	e8 e7 f8 ff ff       	call   10605 <cli>
}
   10d1e:	90                   	nop
   10d1f:	5d                   	pop    %ebp
   10d20:	c3                   	ret    

00010d21 <irq_enable_global>:

// 将eflags中的IF位设置为0
void irq_enable_global (void) {
   10d21:	55                   	push   %ebp
   10d22:	89 e5                	mov    %esp,%ebp
    sti();
   10d24:	e8 e3 f8 ff ff       	call   1060c <sti>
}
   10d29:	90                   	nop
   10d2a:	5d                   	pop    %ebp
   10d2b:	c3                   	ret    

00010d2c <pic_send_eoi>:

void pic_send_eoi(int irq_num) {
   10d2c:	55                   	push   %ebp
   10d2d:	89 e5                	mov    %esp,%ebp
    
    irq_num -= IRQ_PIC_START;
   10d2f:	83 6d 08 20          	subl   $0x20,0x8(%ebp)

    if(irq_num >= 8){
   10d33:	83 7d 08 07          	cmpl   $0x7,0x8(%ebp)
   10d37:	7e 0f                	jle    10d48 <pic_send_eoi+0x1c>
        outb(PIC1_OCW2,PIC_OCW2_EOI);
   10d39:	6a 20                	push   $0x20
   10d3b:	68 a0 00 00 00       	push   $0xa0
   10d40:	e8 a1 f8 ff ff       	call   105e6 <outb>
   10d45:	83 c4 08             	add    $0x8,%esp

    }
    outb(PIC0_OCW2,PIC_OCW2_EOI);
   10d48:	6a 20                	push   $0x20
   10d4a:	6a 20                	push   $0x20
   10d4c:	e8 95 f8 ff ff       	call   105e6 <outb>
   10d51:	83 c4 08             	add    $0x8,%esp

}
   10d54:	90                   	nop
   10d55:	c9                   	leave  
   10d56:	c3                   	ret    

00010d57 <outb>:
static inline void outb(uint16_t port,uint8_t data){
   10d57:	55                   	push   %ebp
   10d58:	89 e5                	mov    %esp,%ebp
   10d5a:	83 ec 08             	sub    $0x8,%esp
   10d5d:	8b 55 08             	mov    0x8(%ebp),%edx
   10d60:	8b 45 0c             	mov    0xc(%ebp),%eax
   10d63:	66 89 55 fc          	mov    %dx,-0x4(%ebp)
   10d67:	88 45 f8             	mov    %al,-0x8(%ebp)
    __asm__ __volatile__("outb %[v],%[p]"::[p]"d"(port),[v]"a"(data));
   10d6a:	0f b7 55 fc          	movzwl -0x4(%ebp),%edx
   10d6e:	0f b6 45 f8          	movzbl -0x8(%ebp),%eax
   10d72:	ee                   	out    %al,(%dx)
}
   10d73:	90                   	nop
   10d74:	c9                   	leave  
   10d75:	c3                   	ret    

00010d76 <do_handler_timer>:


/**
 * 定时器中断处理函数
 */
void do_handler_timer(exception_frame_t * frame) {
   10d76:	55                   	push   %ebp
   10d77:	89 e5                	mov    %esp,%ebp
   10d79:	83 ec 08             	sub    $0x8,%esp
    sys_tick++;
   10d7c:	a1 20 28 01 00       	mov    0x12820,%eax
   10d81:	83 c0 01             	add    $0x1,%eax
   10d84:	a3 20 28 01 00       	mov    %eax,0x12820
    // 先发EOI，而不是放在最后
    // 放最后将从任务中切换出去之后，除非任务再切换回来才能继续响应
    pic_send_eoi(IRQ0_TIMER);
   10d89:	83 ec 0c             	sub    $0xc,%esp
   10d8c:	6a 20                	push   $0x20
   10d8e:	e8 99 ff ff ff       	call   10d2c <pic_send_eoi>
   10d93:	83 c4 10             	add    $0x10,%esp
}
   10d96:	90                   	nop
   10d97:	c9                   	leave  
   10d98:	c3                   	ret    

00010d99 <init_pit>:

/**
 * 初始化硬件定时器
 */
static void init_pit (void) {
   10d99:	55                   	push   %ebp
   10d9a:	89 e5                	mov    %esp,%ebp
   10d9c:	83 ec 18             	sub    $0x18,%esp
    uint32_t reload_count = PIT_OSC_FREQ / (1000.0 / OS_TICK_MS);
   10d9f:	c7 45 f4 9b 2e 00 00 	movl   $0x2e9b,-0xc(%ebp)
    outb(PIT_COMMAND_MODE_PORT, PIT_CHANNEL0 | PIT_LOAD_LOHI | PIT_MODE3);
   10da6:	6a 36                	push   $0x36
   10da8:	6a 43                	push   $0x43
   10daa:	e8 a8 ff ff ff       	call   10d57 <outb>
   10daf:	83 c4 08             	add    $0x8,%esp
    outb(PIT_CHANNEL0_DATA_PORT, reload_count & 0xff);   // 加载低8位
   10db2:	8b 45 f4             	mov    -0xc(%ebp),%eax
   10db5:	0f b6 c0             	movzbl %al,%eax
   10db8:	50                   	push   %eax
   10db9:	6a 40                	push   $0x40
   10dbb:	e8 97 ff ff ff       	call   10d57 <outb>
   10dc0:	83 c4 08             	add    $0x8,%esp
    outb(PIT_CHANNEL0_DATA_PORT, (reload_count >> 8) & 0xff); // 再加载高8位
   10dc3:	8b 45 f4             	mov    -0xc(%ebp),%eax
   10dc6:	c1 e8 08             	shr    $0x8,%eax
   10dc9:	0f b6 c0             	movzbl %al,%eax
   10dcc:	50                   	push   %eax
   10dcd:	6a 40                	push   $0x40
   10dcf:	e8 83 ff ff ff       	call   10d57 <outb>
   10dd4:	83 c4 08             	add    $0x8,%esp

    irq_install(IRQ0_TIMER, (irq_handler_t)exception_handler_timer);
   10dd7:	83 ec 08             	sub    $0x8,%esp
   10dda:	68 86 02 01 00       	push   $0x10286
   10ddf:	6a 20                	push   $0x20
   10de1:	e8 e4 fd ff ff       	call   10bca <irq_install>
   10de6:	83 c4 10             	add    $0x10,%esp
    irq_enable(IRQ0_TIMER);
   10de9:	83 ec 0c             	sub    $0xc,%esp
   10dec:	6a 20                	push   $0x20
   10dee:	e8 11 fe ff ff       	call   10c04 <irq_enable>
   10df3:	83 c4 10             	add    $0x10,%esp
}
   10df6:	90                   	nop
   10df7:	c9                   	leave  
   10df8:	c3                   	ret    

00010df9 <time_init>:


/**
 * 定时器初始化
 */
void time_init (void) {
   10df9:	55                   	push   %ebp
   10dfa:	89 e5                	mov    %esp,%ebp
   10dfc:	83 ec 08             	sub    $0x8,%esp
    sys_tick = 0;
   10dff:	c7 05 20 28 01 00 00 	movl   $0x0,0x12820
   10e06:	00 00 00 

    init_pit();
   10e09:	e8 8b ff ff ff       	call   10d99 <init_pit>
   10e0e:	90                   	nop
   10e0f:	c9                   	leave  
   10e10:	c3                   	ret    

00010e11 <write_tr>:

static inline void write_tr(uint16_t tss_sel) {
   10e11:	55                   	push   %ebp
   10e12:	89 e5                	mov    %esp,%ebp
   10e14:	83 ec 04             	sub    $0x4,%esp
   10e17:	8b 45 08             	mov    0x8(%ebp),%eax
   10e1a:	66 89 45 fc          	mov    %ax,-0x4(%ebp)
    __asm__ __volatile__ ("ltr %%ax"::"a"(tss_sel));
   10e1e:	0f b7 45 fc          	movzwl -0x4(%ebp),%eax
   10e22:	0f 00 d8             	ltr    %ax
}
   10e25:	90                   	nop
   10e26:	c9                   	leave  
   10e27:	c3                   	ret    

00010e28 <list_count>:
/**
 * 获取链表的结点数量
 * @param list 查询的链表
 * @return 结果的数据
 */
static inline int list_count(list_t *list) {
   10e28:	55                   	push   %ebp
   10e29:	89 e5                	mov    %esp,%ebp
    return list->count;
   10e2b:	8b 45 08             	mov    0x8(%ebp),%eax
   10e2e:	8b 40 08             	mov    0x8(%eax),%eax
}
   10e31:	5d                   	pop    %ebp
   10e32:	c3                   	ret    

00010e33 <list_first>:
/**
 * 获取指定链表的第一个表项
 * @param list 查询的链表
 * @return 第一个表项
 */
static inline list_node_t* list_first(list_t *list) {
   10e33:	55                   	push   %ebp
   10e34:	89 e5                	mov    %esp,%ebp
    return list->first;
   10e36:	8b 45 08             	mov    0x8(%ebp),%eax
   10e39:	8b 00                	mov    (%eax),%eax
}
   10e3b:	5d                   	pop    %ebp
   10e3c:	c3                   	ret    

00010e3d <list_last>:
/**
 * 获取指定链接的最后一个表项
 * @param list 查询的链表
 * @return 最后一个表项
 */
static inline list_node_t* list_last(list_t *list) {
   10e3d:	55                   	push   %ebp
   10e3e:	89 e5                	mov    %esp,%ebp
    return list->last;
   10e40:	8b 45 08             	mov    0x8(%ebp),%eax
   10e43:	8b 40 04             	mov    0x4(%eax),%eax
}
   10e46:	5d                   	pop    %ebp
   10e47:	c3                   	ret    

00010e48 <kernel_init>:
#include "tools/list.h"

/**
 * 内核入口
 */
void kernel_init (boot_info_t * boot_info){
   10e48:	55                   	push   %ebp
   10e49:	89 e5                	mov    %esp,%ebp
   10e4b:	83 ec 08             	sub    $0x8,%esp
    cpu_init();
   10e4e:	e8 12 f7 ff ff       	call   10565 <cpu_init>

    log_init();
   10e53:	e8 e9 08 00 00       	call   11741 <log_init>
    irq_init();
   10e58:	e8 bf fb ff ff       	call   10a1c <irq_init>
    time_init();
   10e5d:	e8 97 ff ff ff       	call   10df9 <time_init>
}
   10e62:	90                   	nop
   10e63:	c9                   	leave  
   10e64:	c3                   	ret    

00010e65 <init_task_entry>:

static task_t first_task;
static uint32_t init_task_stack[1024];
static task_t init_task;

void init_task_entry(void) {
   10e65:	55                   	push   %ebp
   10e66:	89 e5                	mov    %esp,%ebp
   10e68:	83 ec 18             	sub    $0x18,%esp
    
    int count = 0;
   10e6b:	c7 45 f4 00 00 00 00 	movl   $0x0,-0xc(%ebp)
    for(;;){
        log_printf("int task: %d",count++);
   10e72:	8b 45 f4             	mov    -0xc(%ebp),%eax
   10e75:	8d 50 01             	lea    0x1(%eax),%edx
   10e78:	89 55 f4             	mov    %edx,-0xc(%ebp)
   10e7b:	83 ec 08             	sub    $0x8,%esp
   10e7e:	50                   	push   %eax
   10e7f:	68 1c 1b 01 00       	push   $0x11b1c
   10e84:	e8 2d 09 00 00       	call   117b6 <log_printf>
   10e89:	83 c4 10             	add    $0x10,%esp
        task_switch_from_to(&init_task,&first_task);
   10e8c:	83 ec 08             	sub    $0x8,%esp
   10e8f:	68 40 28 01 00       	push   $0x12840
   10e94:	68 c0 38 01 00       	push   $0x138c0
   10e99:	e8 f7 f4 ff ff       	call   10395 <task_switch_from_to>
   10e9e:	83 c4 10             	add    $0x10,%esp
        log_printf("int task: %d",count++);
   10ea1:	eb cf                	jmp    10e72 <init_task_entry+0xd>

00010ea3 <list_test>:
    }    

}

void list_test (void) {
   10ea3:	55                   	push   %ebp
   10ea4:	89 e5                	mov    %esp,%ebp
   10ea6:	56                   	push   %esi
   10ea7:	53                   	push   %ebx
   10ea8:	83 ec 50             	sub    $0x50,%esp
    list_t list;

    list_node_t nodes[5];
    list_init(&list);
   10eab:	83 ec 0c             	sub    $0xc,%esp
   10eae:	8d 45 dc             	lea    -0x24(%ebp),%eax
   10eb1:	50                   	push   %eax
   10eb2:	e8 65 07 00 00       	call   1161c <list_init>
   10eb7:	83 c4 10             	add    $0x10,%esp



    for(int i = 0; i < 5; i++) {
   10eba:	c7 45 f4 00 00 00 00 	movl   $0x0,-0xc(%ebp)
   10ec1:	eb 3f                	jmp    10f02 <list_test+0x5f>
        list_node_t * node = nodes + i;
   10ec3:	8b 45 f4             	mov    -0xc(%ebp),%eax
   10ec6:	8d 14 c5 00 00 00 00 	lea    0x0(,%eax,8),%edx
   10ecd:	8d 45 b4             	lea    -0x4c(%ebp),%eax
   10ed0:	01 d0                	add    %edx,%eax
   10ed2:	89 45 e8             	mov    %eax,-0x18(%ebp)
        log_printf("insert first to last: %d,0x%x",i,(uint32_t)node);
   10ed5:	8b 45 e8             	mov    -0x18(%ebp),%eax
   10ed8:	83 ec 04             	sub    $0x4,%esp
   10edb:	50                   	push   %eax
   10edc:	ff 75 f4             	pushl  -0xc(%ebp)
   10edf:	68 29 1b 01 00       	push   $0x11b29
   10ee4:	e8 cd 08 00 00       	call   117b6 <log_printf>
   10ee9:	83 c4 10             	add    $0x10,%esp
        list_insert_first(&list,node);
   10eec:	83 ec 08             	sub    $0x8,%esp
   10eef:	ff 75 e8             	pushl  -0x18(%ebp)
   10ef2:	8d 45 dc             	lea    -0x24(%ebp),%eax
   10ef5:	50                   	push   %eax
   10ef6:	e8 46 07 00 00       	call   11641 <list_insert_first>
   10efb:	83 c4 10             	add    $0x10,%esp
    for(int i = 0; i < 5; i++) {
   10efe:	83 45 f4 01          	addl   $0x1,-0xc(%ebp)
   10f02:	83 7d f4 04          	cmpl   $0x4,-0xc(%ebp)
   10f06:	7e bb                	jle    10ec3 <list_test+0x20>
    }
    log_printf("list: firts=0x%x,last=0x%x,count=%d",
   10f08:	83 ec 0c             	sub    $0xc,%esp
   10f0b:	8d 45 dc             	lea    -0x24(%ebp),%eax
   10f0e:	50                   	push   %eax
   10f0f:	e8 14 ff ff ff       	call   10e28 <list_count>
   10f14:	83 c4 10             	add    $0x10,%esp
   10f17:	89 c6                	mov    %eax,%esi
   10f19:	83 ec 0c             	sub    $0xc,%esp
   10f1c:	8d 45 dc             	lea    -0x24(%ebp),%eax
   10f1f:	50                   	push   %eax
   10f20:	e8 18 ff ff ff       	call   10e3d <list_last>
   10f25:	83 c4 10             	add    $0x10,%esp
   10f28:	89 c3                	mov    %eax,%ebx
   10f2a:	83 ec 0c             	sub    $0xc,%esp
   10f2d:	8d 45 dc             	lea    -0x24(%ebp),%eax
   10f30:	50                   	push   %eax
   10f31:	e8 fd fe ff ff       	call   10e33 <list_first>
   10f36:	83 c4 10             	add    $0x10,%esp
   10f39:	56                   	push   %esi
   10f3a:	53                   	push   %ebx
   10f3b:	50                   	push   %eax
   10f3c:	68 48 1b 01 00       	push   $0x11b48
   10f41:	e8 70 08 00 00       	call   117b6 <log_printf>
   10f46:	83 c4 10             	add    $0x10,%esp
    list_first(&list),list_last(&list),list_count(&list));

    list_init(&list);
   10f49:	83 ec 0c             	sub    $0xc,%esp
   10f4c:	8d 45 dc             	lea    -0x24(%ebp),%eax
   10f4f:	50                   	push   %eax
   10f50:	e8 c7 06 00 00       	call   1161c <list_init>
   10f55:	83 c4 10             	add    $0x10,%esp

    for(int i = 0; i < 5; i++) {
   10f58:	c7 45 f0 00 00 00 00 	movl   $0x0,-0x10(%ebp)
   10f5f:	eb 3f                	jmp    10fa0 <list_test+0xfd>
        list_node_t * node = nodes + i;
   10f61:	8b 45 f0             	mov    -0x10(%ebp),%eax
   10f64:	8d 14 c5 00 00 00 00 	lea    0x0(,%eax,8),%edx
   10f6b:	8d 45 b4             	lea    -0x4c(%ebp),%eax
   10f6e:	01 d0                	add    %edx,%eax
   10f70:	89 45 ec             	mov    %eax,-0x14(%ebp)
        log_printf("insert first to last: %d,0x%x",i,(uint32_t)node);
   10f73:	8b 45 ec             	mov    -0x14(%ebp),%eax
   10f76:	83 ec 04             	sub    $0x4,%esp
   10f79:	50                   	push   %eax
   10f7a:	ff 75 f0             	pushl  -0x10(%ebp)
   10f7d:	68 29 1b 01 00       	push   $0x11b29
   10f82:	e8 2f 08 00 00       	call   117b6 <log_printf>
   10f87:	83 c4 10             	add    $0x10,%esp
        list_insert_last(&list,node);
   10f8a:	83 ec 08             	sub    $0x8,%esp
   10f8d:	ff 75 ec             	pushl  -0x14(%ebp)
   10f90:	8d 45 dc             	lea    -0x24(%ebp),%eax
   10f93:	50                   	push   %eax
   10f94:	e8 08 07 00 00       	call   116a1 <list_insert_last>
   10f99:	83 c4 10             	add    $0x10,%esp
    for(int i = 0; i < 5; i++) {
   10f9c:	83 45 f0 01          	addl   $0x1,-0x10(%ebp)
   10fa0:	83 7d f0 04          	cmpl   $0x4,-0x10(%ebp)
   10fa4:	7e bb                	jle    10f61 <list_test+0xbe>
    }
    log_printf("list: firts=0x%x,last=0x%x,count=%d",
   10fa6:	83 ec 0c             	sub    $0xc,%esp
   10fa9:	8d 45 dc             	lea    -0x24(%ebp),%eax
   10fac:	50                   	push   %eax
   10fad:	e8 76 fe ff ff       	call   10e28 <list_count>
   10fb2:	83 c4 10             	add    $0x10,%esp
   10fb5:	89 c6                	mov    %eax,%esi
   10fb7:	83 ec 0c             	sub    $0xc,%esp
   10fba:	8d 45 dc             	lea    -0x24(%ebp),%eax
   10fbd:	50                   	push   %eax
   10fbe:	e8 7a fe ff ff       	call   10e3d <list_last>
   10fc3:	83 c4 10             	add    $0x10,%esp
   10fc6:	89 c3                	mov    %eax,%ebx
   10fc8:	83 ec 0c             	sub    $0xc,%esp
   10fcb:	8d 45 dc             	lea    -0x24(%ebp),%eax
   10fce:	50                   	push   %eax
   10fcf:	e8 5f fe ff ff       	call   10e33 <list_first>
   10fd4:	83 c4 10             	add    $0x10,%esp
   10fd7:	56                   	push   %esi
   10fd8:	53                   	push   %ebx
   10fd9:	50                   	push   %eax
   10fda:	68 48 1b 01 00       	push   $0x11b48
   10fdf:	e8 d2 07 00 00       	call   117b6 <log_printf>
   10fe4:	83 c4 10             	add    $0x10,%esp
    list_first(&list),list_last(&list),list_count(&list));
    
}
   10fe7:	90                   	nop
   10fe8:	8d 65 f8             	lea    -0x8(%ebp),%esp
   10feb:	5b                   	pop    %ebx
   10fec:	5e                   	pop    %esi
   10fed:	5d                   	pop    %ebp
   10fee:	c3                   	ret    

00010fef <init_main>:


void init_main(void) {
   10fef:	55                   	push   %ebp
   10ff0:	89 e5                	mov    %esp,%ebp
   10ff2:	83 ec 18             	sub    $0x18,%esp

    list_test();
   10ff5:	e8 a9 fe ff ff       	call   10ea3 <list_test>
    log_printf("kernel is running....");
   10ffa:	83 ec 0c             	sub    $0xc,%esp
   10ffd:	68 6c 1b 01 00       	push   $0x11b6c
   11002:	e8 af 07 00 00       	call   117b6 <log_printf>
   11007:	83 c4 10             	add    $0x10,%esp
    log_printf("version: %s %s",OS_VERSION,"diyx86os");
   1100a:	83 ec 04             	sub    $0x4,%esp
   1100d:	68 82 1b 01 00       	push   $0x11b82
   11012:	68 8b 1b 01 00       	push   $0x11b8b
   11017:	68 91 1b 01 00       	push   $0x11b91
   1101c:	e8 95 07 00 00       	call   117b6 <log_printf>
   11021:	83 c4 10             	add    $0x10,%esp
    log_printf("%d %d %x %c",123456,-123,0x12345,'a');
   11024:	83 ec 0c             	sub    $0xc,%esp
   11027:	6a 61                	push   $0x61
   11029:	68 45 23 01 00       	push   $0x12345
   1102e:	6a 85                	push   $0xffffff85
   11030:	68 40 e2 01 00       	push   $0x1e240
   11035:	68 a0 1b 01 00       	push   $0x11ba0
   1103a:	e8 77 07 00 00       	call   117b6 <log_printf>
   1103f:	83 c4 20             	add    $0x20,%esp

    task_init(&init_task, (uint32_t)init_task_entry,(uint32_t)&init_task_stack[1024]);
   11042:	ba c0 38 01 00       	mov    $0x138c0,%edx
   11047:	b8 65 0e 01 00       	mov    $0x10e65,%eax
   1104c:	83 ec 04             	sub    $0x4,%esp
   1104f:	52                   	push   %edx
   11050:	50                   	push   %eax
   11051:	68 c0 38 01 00       	push   $0x138c0
   11056:	e8 55 f3 ff ff       	call   103b0 <task_init>
   1105b:	83 c4 10             	add    $0x10,%esp
    task_init(&first_task, 0,0);
   1105e:	83 ec 04             	sub    $0x4,%esp
   11061:	6a 00                	push   $0x0
   11063:	6a 00                	push   $0x0
   11065:	68 40 28 01 00       	push   $0x12840
   1106a:	e8 41 f3 ff ff       	call   103b0 <task_init>
   1106f:	83 c4 10             	add    $0x10,%esp
    write_tr(first_task.tss_sel); // 初始化任务寄存器 task register
   11072:	a1 a8 28 01 00       	mov    0x128a8,%eax
   11077:	0f b7 c0             	movzwl %ax,%eax
   1107a:	83 ec 0c             	sub    $0xc,%esp
   1107d:	50                   	push   %eax
   1107e:	e8 8e fd ff ff       	call   10e11 <write_tr>
   11083:	83 c4 10             	add    $0x10,%esp

    int count = 0;
   11086:	c7 45 f4 00 00 00 00 	movl   $0x0,-0xc(%ebp)
    for(;;){
        log_printf("int main: %d",count++);
   1108d:	8b 45 f4             	mov    -0xc(%ebp),%eax
   11090:	8d 50 01             	lea    0x1(%eax),%edx
   11093:	89 55 f4             	mov    %edx,-0xc(%ebp)
   11096:	83 ec 08             	sub    $0x8,%esp
   11099:	50                   	push   %eax
   1109a:	68 ac 1b 01 00       	push   $0x11bac
   1109f:	e8 12 07 00 00       	call   117b6 <log_printf>
   110a4:	83 c4 10             	add    $0x10,%esp
        task_switch_from_to(&first_task,&init_task);
   110a7:	83 ec 08             	sub    $0x8,%esp
   110aa:	68 c0 38 01 00       	push   $0x138c0
   110af:	68 40 28 01 00       	push   $0x12840
   110b4:	e8 dc f2 ff ff       	call   10395 <task_switch_from_to>
   110b9:	83 c4 10             	add    $0x10,%esp
        log_printf("int main: %d",count++);
   110bc:	eb cf                	jmp    1108d <init_main+0x9e>

000110be <hlt>:
static inline void hlt (void) {
   110be:	55                   	push   %ebp
   110bf:	89 e5                	mov    %esp,%ebp
    __asm__ __volatile__("hlt");
   110c1:	f4                   	hlt    
}
   110c2:	90                   	nop
   110c3:	5d                   	pop    %ebp
   110c4:	c3                   	ret    

000110c5 <kernel_strcpy>:
#include "comm/types.h"
#include "tools/klib.h"
#include "tools/log.h"
#include "comm/cpu_instr.h"

void kernel_strcpy(char * dest,const char *src) {
   110c5:	55                   	push   %ebp
   110c6:	89 e5                	mov    %esp,%ebp
    if (!dest || !src){
   110c8:	83 7d 08 00          	cmpl   $0x0,0x8(%ebp)
   110cc:	74 3b                	je     11109 <kernel_strcpy+0x44>
   110ce:	83 7d 0c 00          	cmpl   $0x0,0xc(%ebp)
   110d2:	74 35                	je     11109 <kernel_strcpy+0x44>
        return;
    }
    while(*dest && *src) {
   110d4:	eb 17                	jmp    110ed <kernel_strcpy+0x28>
        *dest++ = *src++;
   110d6:	8b 55 0c             	mov    0xc(%ebp),%edx
   110d9:	8d 42 01             	lea    0x1(%edx),%eax
   110dc:	89 45 0c             	mov    %eax,0xc(%ebp)
   110df:	8b 45 08             	mov    0x8(%ebp),%eax
   110e2:	8d 48 01             	lea    0x1(%eax),%ecx
   110e5:	89 4d 08             	mov    %ecx,0x8(%ebp)
   110e8:	0f b6 12             	movzbl (%edx),%edx
   110eb:	88 10                	mov    %dl,(%eax)
    while(*dest && *src) {
   110ed:	8b 45 08             	mov    0x8(%ebp),%eax
   110f0:	0f b6 00             	movzbl (%eax),%eax
   110f3:	84 c0                	test   %al,%al
   110f5:	74 0a                	je     11101 <kernel_strcpy+0x3c>
   110f7:	8b 45 0c             	mov    0xc(%ebp),%eax
   110fa:	0f b6 00             	movzbl (%eax),%eax
   110fd:	84 c0                	test   %al,%al
   110ff:	75 d5                	jne    110d6 <kernel_strcpy+0x11>
    }

    *dest = '\0';
   11101:	8b 45 08             	mov    0x8(%ebp),%eax
   11104:	c6 00 00             	movb   $0x0,(%eax)
   11107:	eb 01                	jmp    1110a <kernel_strcpy+0x45>
        return;
   11109:	90                   	nop
}
   1110a:	5d                   	pop    %ebp
   1110b:	c3                   	ret    

0001110c <kernel_strncpy>:
void kernel_strncpy(char * dest,const char *src,int size) {
   1110c:	55                   	push   %ebp
   1110d:	89 e5                	mov    %esp,%ebp
   1110f:	83 ec 10             	sub    $0x10,%esp
        if (!dest || !src || !size){
   11112:	83 7d 08 00          	cmpl   $0x0,0x8(%ebp)
   11116:	74 61                	je     11179 <kernel_strncpy+0x6d>
   11118:	83 7d 0c 00          	cmpl   $0x0,0xc(%ebp)
   1111c:	74 5b                	je     11179 <kernel_strncpy+0x6d>
   1111e:	83 7d 10 00          	cmpl   $0x0,0x10(%ebp)
   11122:	74 55                	je     11179 <kernel_strncpy+0x6d>
        return;
    }
    char * d = dest;
   11124:	8b 45 08             	mov    0x8(%ebp),%eax
   11127:	89 45 fc             	mov    %eax,-0x4(%ebp)
    const char * s = src;
   1112a:	8b 45 0c             	mov    0xc(%ebp),%eax
   1112d:	89 45 f8             	mov    %eax,-0x8(%ebp)
    while ((size-- > 0) && (*s)) {
   11130:	eb 17                	jmp    11149 <kernel_strncpy+0x3d>
        *d++ = *s++;
   11132:	8b 55 f8             	mov    -0x8(%ebp),%edx
   11135:	8d 42 01             	lea    0x1(%edx),%eax
   11138:	89 45 f8             	mov    %eax,-0x8(%ebp)
   1113b:	8b 45 fc             	mov    -0x4(%ebp),%eax
   1113e:	8d 48 01             	lea    0x1(%eax),%ecx
   11141:	89 4d fc             	mov    %ecx,-0x4(%ebp)
   11144:	0f b6 12             	movzbl (%edx),%edx
   11147:	88 10                	mov    %dl,(%eax)
    while ((size-- > 0) && (*s)) {
   11149:	8b 45 10             	mov    0x10(%ebp),%eax
   1114c:	8d 50 ff             	lea    -0x1(%eax),%edx
   1114f:	89 55 10             	mov    %edx,0x10(%ebp)
   11152:	85 c0                	test   %eax,%eax
   11154:	7e 0a                	jle    11160 <kernel_strncpy+0x54>
   11156:	8b 45 f8             	mov    -0x8(%ebp),%eax
   11159:	0f b6 00             	movzbl (%eax),%eax
   1115c:	84 c0                	test   %al,%al
   1115e:	75 d2                	jne    11132 <kernel_strncpy+0x26>
    }
    if (size == 0) {
   11160:	83 7d 10 00          	cmpl   $0x0,0x10(%ebp)
   11164:	75 0b                	jne    11171 <kernel_strncpy+0x65>
        *(d - 1) = '\0';
   11166:	8b 45 fc             	mov    -0x4(%ebp),%eax
   11169:	83 e8 01             	sub    $0x1,%eax
   1116c:	c6 00 00             	movb   $0x0,(%eax)
   1116f:	eb 09                	jmp    1117a <kernel_strncpy+0x6e>
    }
    else{
        *d = '\0';
   11171:	8b 45 fc             	mov    -0x4(%ebp),%eax
   11174:	c6 00 00             	movb   $0x0,(%eax)
   11177:	eb 01                	jmp    1117a <kernel_strncpy+0x6e>
        return;
   11179:	90                   	nop
    }
}
   1117a:	c9                   	leave  
   1117b:	c3                   	ret    

0001117c <kernel_strncmp>:
// 不同返回 -1
int kernel_strncmp(const char * s1,const char * s2,int size){
   1117c:	55                   	push   %ebp
   1117d:	89 e5                	mov    %esp,%ebp
    if (!s1 || !s2){
   1117f:	83 7d 08 00          	cmpl   $0x0,0x8(%ebp)
   11183:	74 06                	je     1118b <kernel_strncmp+0xf>
   11185:	83 7d 0c 00          	cmpl   $0x0,0xc(%ebp)
   11189:	75 0f                	jne    1119a <kernel_strncmp+0x1e>
        return -1;
   1118b:	b8 ff ff ff ff       	mov    $0xffffffff,%eax
   11190:	eb 62                	jmp    111f4 <kernel_strncmp+0x78>
    }
    while(*s1 && *s2 &&(*s1 == *s2) && size){
        s1++;
   11192:	83 45 08 01          	addl   $0x1,0x8(%ebp)
        s2++;
   11196:	83 45 0c 01          	addl   $0x1,0xc(%ebp)
    while(*s1 && *s2 &&(*s1 == *s2) && size){
   1119a:	8b 45 08             	mov    0x8(%ebp),%eax
   1119d:	0f b6 00             	movzbl (%eax),%eax
   111a0:	84 c0                	test   %al,%al
   111a2:	74 20                	je     111c4 <kernel_strncmp+0x48>
   111a4:	8b 45 0c             	mov    0xc(%ebp),%eax
   111a7:	0f b6 00             	movzbl (%eax),%eax
   111aa:	84 c0                	test   %al,%al
   111ac:	74 16                	je     111c4 <kernel_strncmp+0x48>
   111ae:	8b 45 08             	mov    0x8(%ebp),%eax
   111b1:	0f b6 10             	movzbl (%eax),%edx
   111b4:	8b 45 0c             	mov    0xc(%ebp),%eax
   111b7:	0f b6 00             	movzbl (%eax),%eax
   111ba:	38 c2                	cmp    %al,%dl
   111bc:	75 06                	jne    111c4 <kernel_strncmp+0x48>
   111be:	83 7d 10 00          	cmpl   $0x0,0x10(%ebp)
   111c2:	75 ce                	jne    11192 <kernel_strncmp+0x16>
    }    
    return !((*s1 == '\0') || (*s2 == '\0') || (*s1 == *s2));
   111c4:	8b 45 08             	mov    0x8(%ebp),%eax
   111c7:	0f b6 00             	movzbl (%eax),%eax
   111ca:	84 c0                	test   %al,%al
   111cc:	74 21                	je     111ef <kernel_strncmp+0x73>
   111ce:	8b 45 0c             	mov    0xc(%ebp),%eax
   111d1:	0f b6 00             	movzbl (%eax),%eax
   111d4:	84 c0                	test   %al,%al
   111d6:	74 17                	je     111ef <kernel_strncmp+0x73>
   111d8:	8b 45 08             	mov    0x8(%ebp),%eax
   111db:	0f b6 10             	movzbl (%eax),%edx
   111de:	8b 45 0c             	mov    0xc(%ebp),%eax
   111e1:	0f b6 00             	movzbl (%eax),%eax
   111e4:	38 c2                	cmp    %al,%dl
   111e6:	74 07                	je     111ef <kernel_strncmp+0x73>
   111e8:	b8 01 00 00 00       	mov    $0x1,%eax
   111ed:	eb 05                	jmp    111f4 <kernel_strncmp+0x78>
   111ef:	b8 00 00 00 00       	mov    $0x0,%eax
}
   111f4:	5d                   	pop    %ebp
   111f5:	c3                   	ret    

000111f6 <kernel_strlen>:
int kernel_strlen(const char * str){
   111f6:	55                   	push   %ebp
   111f7:	89 e5                	mov    %esp,%ebp
   111f9:	83 ec 10             	sub    $0x10,%esp
    if (!str){
   111fc:	83 7d 08 00          	cmpl   $0x0,0x8(%ebp)
   11200:	75 07                	jne    11209 <kernel_strlen+0x13>
        return 0;
   11202:	b8 00 00 00 00       	mov    $0x0,%eax
   11207:	eb 26                	jmp    1122f <kernel_strlen+0x39>
    }

    const char * c = str;
   11209:	8b 45 08             	mov    0x8(%ebp),%eax
   1120c:	89 45 fc             	mov    %eax,-0x4(%ebp)
    int len = 0;
   1120f:	c7 45 f8 00 00 00 00 	movl   $0x0,-0x8(%ebp)
    while (*c++) {
   11216:	eb 04                	jmp    1121c <kernel_strlen+0x26>
        len++;
   11218:	83 45 f8 01          	addl   $0x1,-0x8(%ebp)
    while (*c++) {
   1121c:	8b 45 fc             	mov    -0x4(%ebp),%eax
   1121f:	8d 50 01             	lea    0x1(%eax),%edx
   11222:	89 55 fc             	mov    %edx,-0x4(%ebp)
   11225:	0f b6 00             	movzbl (%eax),%eax
   11228:	84 c0                	test   %al,%al
   1122a:	75 ec                	jne    11218 <kernel_strlen+0x22>
    }
    return len;
   1122c:	8b 45 f8             	mov    -0x8(%ebp),%eax
}
   1122f:	c9                   	leave  
   11230:	c3                   	ret    

00011231 <kernel_memcpy>:
void kernel_memcpy(void * dest,void *src,int size){
   11231:	55                   	push   %ebp
   11232:	89 e5                	mov    %esp,%ebp
   11234:	83 ec 10             	sub    $0x10,%esp
    if (!dest || !src || !size) {
   11237:	83 7d 08 00          	cmpl   $0x0,0x8(%ebp)
   1123b:	74 40                	je     1127d <kernel_memcpy+0x4c>
   1123d:	83 7d 0c 00          	cmpl   $0x0,0xc(%ebp)
   11241:	74 3a                	je     1127d <kernel_memcpy+0x4c>
   11243:	83 7d 10 00          	cmpl   $0x0,0x10(%ebp)
   11247:	74 34                	je     1127d <kernel_memcpy+0x4c>
        return;
    }
    uint8_t *s = (uint8_t*)src;
   11249:	8b 45 0c             	mov    0xc(%ebp),%eax
   1124c:	89 45 fc             	mov    %eax,-0x4(%ebp)
    uint8_t *d = (uint8_t*)dest;
   1124f:	8b 45 08             	mov    0x8(%ebp),%eax
   11252:	89 45 f8             	mov    %eax,-0x8(%ebp)
    while(size--){
   11255:	eb 17                	jmp    1126e <kernel_memcpy+0x3d>
        *d++ = *s++;
   11257:	8b 55 fc             	mov    -0x4(%ebp),%edx
   1125a:	8d 42 01             	lea    0x1(%edx),%eax
   1125d:	89 45 fc             	mov    %eax,-0x4(%ebp)
   11260:	8b 45 f8             	mov    -0x8(%ebp),%eax
   11263:	8d 48 01             	lea    0x1(%eax),%ecx
   11266:	89 4d f8             	mov    %ecx,-0x8(%ebp)
   11269:	0f b6 12             	movzbl (%edx),%edx
   1126c:	88 10                	mov    %dl,(%eax)
    while(size--){
   1126e:	8b 45 10             	mov    0x10(%ebp),%eax
   11271:	8d 50 ff             	lea    -0x1(%eax),%edx
   11274:	89 55 10             	mov    %edx,0x10(%ebp)
   11277:	85 c0                	test   %eax,%eax
   11279:	75 dc                	jne    11257 <kernel_memcpy+0x26>
   1127b:	eb 01                	jmp    1127e <kernel_memcpy+0x4d>
        return;
   1127d:	90                   	nop
    }

}
   1127e:	c9                   	leave  
   1127f:	c3                   	ret    

00011280 <kernel_memset>:
void kernel_memset(void * dest, uint8_t v,int size){
   11280:	55                   	push   %ebp
   11281:	89 e5                	mov    %esp,%ebp
   11283:	83 ec 14             	sub    $0x14,%esp
   11286:	8b 45 0c             	mov    0xc(%ebp),%eax
   11289:	88 45 ec             	mov    %al,-0x14(%ebp)
    if (!dest || !size){
   1128c:	83 7d 08 00          	cmpl   $0x0,0x8(%ebp)
   11290:	74 2c                	je     112be <kernel_memset+0x3e>
   11292:	83 7d 10 00          	cmpl   $0x0,0x10(%ebp)
   11296:	74 26                	je     112be <kernel_memset+0x3e>
        return;
    }

    uint8_t * d = (uint8_t *)dest;
   11298:	8b 45 08             	mov    0x8(%ebp),%eax
   1129b:	89 45 fc             	mov    %eax,-0x4(%ebp)
    while(size--){
   1129e:	eb 0f                	jmp    112af <kernel_memset+0x2f>
       *d++ = v; 
   112a0:	8b 45 fc             	mov    -0x4(%ebp),%eax
   112a3:	8d 50 01             	lea    0x1(%eax),%edx
   112a6:	89 55 fc             	mov    %edx,-0x4(%ebp)
   112a9:	0f b6 55 ec          	movzbl -0x14(%ebp),%edx
   112ad:	88 10                	mov    %dl,(%eax)
    while(size--){
   112af:	8b 45 10             	mov    0x10(%ebp),%eax
   112b2:	8d 50 ff             	lea    -0x1(%eax),%edx
   112b5:	89 55 10             	mov    %edx,0x10(%ebp)
   112b8:	85 c0                	test   %eax,%eax
   112ba:	75 e4                	jne    112a0 <kernel_memset+0x20>
   112bc:	eb 01                	jmp    112bf <kernel_memset+0x3f>
        return;
   112be:	90                   	nop
    }
}
   112bf:	c9                   	leave  
   112c0:	c3                   	ret    

000112c1 <kernel_memcmp>:
// 不同返回 -1
int kernel_memcmp(void * d1,void *d2,int size){
   112c1:	55                   	push   %ebp
   112c2:	89 e5                	mov    %esp,%ebp
   112c4:	83 ec 10             	sub    $0x10,%esp
    if (!d1 || !d2 || !size) {
   112c7:	83 7d 08 00          	cmpl   $0x0,0x8(%ebp)
   112cb:	74 0c                	je     112d9 <kernel_memcmp+0x18>
   112cd:	83 7d 0c 00          	cmpl   $0x0,0xc(%ebp)
   112d1:	74 06                	je     112d9 <kernel_memcmp+0x18>
   112d3:	83 7d 10 00          	cmpl   $0x0,0x10(%ebp)
   112d7:	75 07                	jne    112e0 <kernel_memcmp+0x1f>
        return -1;
   112d9:	b8 ff ff ff ff       	mov    $0xffffffff,%eax
   112de:	eb 43                	jmp    11323 <kernel_memcmp+0x62>
    }
    uint8_t *p_d1 = (uint8_t*)d1;
   112e0:	8b 45 08             	mov    0x8(%ebp),%eax
   112e3:	89 45 fc             	mov    %eax,-0x4(%ebp)
    uint8_t *p_d2 = (uint8_t*)d2;
   112e6:	8b 45 0c             	mov    0xc(%ebp),%eax
   112e9:	89 45 f8             	mov    %eax,-0x8(%ebp)
    while(size--){
   112ec:	eb 23                	jmp    11311 <kernel_memcmp+0x50>
        if(*p_d1++ != *p_d2++){
   112ee:	8b 45 fc             	mov    -0x4(%ebp),%eax
   112f1:	8d 50 01             	lea    0x1(%eax),%edx
   112f4:	89 55 fc             	mov    %edx,-0x4(%ebp)
   112f7:	0f b6 08             	movzbl (%eax),%ecx
   112fa:	8b 45 f8             	mov    -0x8(%ebp),%eax
   112fd:	8d 50 01             	lea    0x1(%eax),%edx
   11300:	89 55 f8             	mov    %edx,-0x8(%ebp)
   11303:	0f b6 00             	movzbl (%eax),%eax
   11306:	38 c1                	cmp    %al,%cl
   11308:	74 07                	je     11311 <kernel_memcmp+0x50>
            return -1;
   1130a:	b8 ff ff ff ff       	mov    $0xffffffff,%eax
   1130f:	eb 12                	jmp    11323 <kernel_memcmp+0x62>
    while(size--){
   11311:	8b 45 10             	mov    0x10(%ebp),%eax
   11314:	8d 50 ff             	lea    -0x1(%eax),%edx
   11317:	89 55 10             	mov    %edx,0x10(%ebp)
   1131a:	85 c0                	test   %eax,%eax
   1131c:	75 d0                	jne    112ee <kernel_memcmp+0x2d>
        }
    }
    return 0;
   1131e:	b8 00 00 00 00       	mov    $0x0,%eax
}
   11323:	c9                   	leave  
   11324:	c3                   	ret    

00011325 <kernel_sprintf>:

/**
 *  格式化字符串到缓存中
 */
void kernel_sprintf(char * buf,const char * fmt,...){
   11325:	55                   	push   %ebp
   11326:	89 e5                	mov    %esp,%ebp
   11328:	83 ec 18             	sub    $0x18,%esp
    va_list args;

    va_start(args,fmt);
   1132b:	8d 45 10             	lea    0x10(%ebp),%eax
   1132e:	89 45 f4             	mov    %eax,-0xc(%ebp)
    kernel_vsprintf(buf,fmt,args);
   11331:	8b 45 f4             	mov    -0xc(%ebp),%eax
   11334:	83 ec 04             	sub    $0x4,%esp
   11337:	50                   	push   %eax
   11338:	ff 75 0c             	pushl  0xc(%ebp)
   1133b:	ff 75 08             	pushl  0x8(%ebp)
   1133e:	e8 45 01 00 00       	call   11488 <kernel_vsprintf>
   11343:	83 c4 10             	add    $0x10,%esp
    va_end(args);
}
   11346:	90                   	nop
   11347:	c9                   	leave  
   11348:	c3                   	ret    

00011349 <kernel_itoa>:

void kernel_itoa(char * buf, int num, int base) {
   11349:	55                   	push   %ebp
   1134a:	89 e5                	mov    %esp,%ebp
   1134c:	53                   	push   %ebx
   1134d:	83 ec 20             	sub    $0x20,%esp
    // 转换字符索引[-15, -14, ...-1, 0, 1, ...., 14, 15]
    static const char * num2ch = {"FEDCBA9876543210123456789ABCDEF"};
    char * p = buf;
   11350:	8b 45 08             	mov    0x8(%ebp),%eax
   11353:	89 45 f8             	mov    %eax,-0x8(%ebp)
    int old_num = num;
   11356:	8b 45 0c             	mov    0xc(%ebp),%eax
   11359:	89 45 e8             	mov    %eax,-0x18(%ebp)

    // 仅支持部分进制
    if ((base != 2) && (base != 8) && (base != 10) && (base != 16)) {
   1135c:	83 7d 10 02          	cmpl   $0x2,0x10(%ebp)
   11360:	74 1d                	je     1137f <kernel_itoa+0x36>
   11362:	83 7d 10 08          	cmpl   $0x8,0x10(%ebp)
   11366:	74 17                	je     1137f <kernel_itoa+0x36>
   11368:	83 7d 10 0a          	cmpl   $0xa,0x10(%ebp)
   1136c:	74 11                	je     1137f <kernel_itoa+0x36>
   1136e:	83 7d 10 10          	cmpl   $0x10,0x10(%ebp)
   11372:	74 0b                	je     1137f <kernel_itoa+0x36>
        *p = '\0';
   11374:	8b 45 f8             	mov    -0x8(%ebp),%eax
   11377:	c6 00 00             	movb   $0x0,(%eax)
        return;
   1137a:	e9 03 01 00 00       	jmp    11482 <kernel_itoa+0x139>
    }

    // 只支持十进制负数
    int signed_num = 0;
   1137f:	c7 45 f4 00 00 00 00 	movl   $0x0,-0xc(%ebp)
    if ((num < 0) && (base == 10)) {
   11386:	83 7d 0c 00          	cmpl   $0x0,0xc(%ebp)
   1138a:	79 19                	jns    113a5 <kernel_itoa+0x5c>
   1138c:	83 7d 10 0a          	cmpl   $0xa,0x10(%ebp)
   11390:	75 13                	jne    113a5 <kernel_itoa+0x5c>
        *p++ = '-';
   11392:	8b 45 f8             	mov    -0x8(%ebp),%eax
   11395:	8d 50 01             	lea    0x1(%eax),%edx
   11398:	89 55 f8             	mov    %edx,-0x8(%ebp)
   1139b:	c6 00 2d             	movb   $0x2d,(%eax)
        signed_num = 1;
   1139e:	c7 45 f4 01 00 00 00 	movl   $0x1,-0xc(%ebp)
    }

    if (signed_num) {
   113a5:	83 7d f4 00          	cmpl   $0x0,-0xc(%ebp)
   113a9:	74 3b                	je     113e6 <kernel_itoa+0x9d>
        do {
            char ch = num2ch[num % base + 15];
   113ab:	8b 0d 0c 1c 01 00    	mov    0x11c0c,%ecx
   113b1:	8b 45 0c             	mov    0xc(%ebp),%eax
   113b4:	99                   	cltd   
   113b5:	f7 7d 10             	idivl  0x10(%ebp)
   113b8:	89 d0                	mov    %edx,%eax
   113ba:	83 c0 0f             	add    $0xf,%eax
   113bd:	01 c8                	add    %ecx,%eax
   113bf:	0f b6 00             	movzbl (%eax),%eax
   113c2:	88 45 e6             	mov    %al,-0x1a(%ebp)
            *p++ = ch;
   113c5:	8b 45 f8             	mov    -0x8(%ebp),%eax
   113c8:	8d 50 01             	lea    0x1(%eax),%edx
   113cb:	89 55 f8             	mov    %edx,-0x8(%ebp)
   113ce:	0f b6 55 e6          	movzbl -0x1a(%ebp),%edx
   113d2:	88 10                	mov    %dl,(%eax)
            num /= base;
   113d4:	8b 45 0c             	mov    0xc(%ebp),%eax
   113d7:	99                   	cltd   
   113d8:	f7 7d 10             	idivl  0x10(%ebp)
   113db:	89 45 0c             	mov    %eax,0xc(%ebp)
        } while (num);
   113de:	83 7d 0c 00          	cmpl   $0x0,0xc(%ebp)
   113e2:	75 c7                	jne    113ab <kernel_itoa+0x62>
   113e4:	eb 4b                	jmp    11431 <kernel_itoa+0xe8>
    } else {
        uint32_t u_num = (uint32_t)num;
   113e6:	8b 45 0c             	mov    0xc(%ebp),%eax
   113e9:	89 45 f0             	mov    %eax,-0x10(%ebp)
        do {
            char ch = num2ch[u_num % base + 15];
   113ec:	8b 0d 0c 1c 01 00    	mov    0x11c0c,%ecx
   113f2:	8b 5d 10             	mov    0x10(%ebp),%ebx
   113f5:	8b 45 f0             	mov    -0x10(%ebp),%eax
   113f8:	ba 00 00 00 00       	mov    $0x0,%edx
   113fd:	f7 f3                	div    %ebx
   113ff:	89 d0                	mov    %edx,%eax
   11401:	83 c0 0f             	add    $0xf,%eax
   11404:	01 c8                	add    %ecx,%eax
   11406:	0f b6 00             	movzbl (%eax),%eax
   11409:	88 45 e7             	mov    %al,-0x19(%ebp)
            *p++ = ch;
   1140c:	8b 45 f8             	mov    -0x8(%ebp),%eax
   1140f:	8d 50 01             	lea    0x1(%eax),%edx
   11412:	89 55 f8             	mov    %edx,-0x8(%ebp)
   11415:	0f b6 55 e7          	movzbl -0x19(%ebp),%edx
   11419:	88 10                	mov    %dl,(%eax)
            u_num /= base;
   1141b:	8b 5d 10             	mov    0x10(%ebp),%ebx
   1141e:	8b 45 f0             	mov    -0x10(%ebp),%eax
   11421:	ba 00 00 00 00       	mov    $0x0,%edx
   11426:	f7 f3                	div    %ebx
   11428:	89 45 f0             	mov    %eax,-0x10(%ebp)
        } while (u_num);
   1142b:	83 7d f0 00          	cmpl   $0x0,-0x10(%ebp)
   1142f:	75 bb                	jne    113ec <kernel_itoa+0xa3>
    }
    *p-- = '\0';
   11431:	8b 45 f8             	mov    -0x8(%ebp),%eax
   11434:	8d 50 ff             	lea    -0x1(%eax),%edx
   11437:	89 55 f8             	mov    %edx,-0x8(%ebp)
   1143a:	c6 00 00             	movb   $0x0,(%eax)

    // 将转换结果逆序，生成最终的结果
    char * start = (!signed_num) ? buf : buf + 1;
   1143d:	83 7d f4 00          	cmpl   $0x0,-0xc(%ebp)
   11441:	74 08                	je     1144b <kernel_itoa+0x102>
   11443:	8b 45 08             	mov    0x8(%ebp),%eax
   11446:	83 c0 01             	add    $0x1,%eax
   11449:	eb 03                	jmp    1144e <kernel_itoa+0x105>
   1144b:	8b 45 08             	mov    0x8(%ebp),%eax
   1144e:	89 45 ec             	mov    %eax,-0x14(%ebp)
    while (start < p) {
   11451:	eb 27                	jmp    1147a <kernel_itoa+0x131>
        char ch = *start;
   11453:	8b 45 ec             	mov    -0x14(%ebp),%eax
   11456:	0f b6 00             	movzbl (%eax),%eax
   11459:	88 45 e5             	mov    %al,-0x1b(%ebp)
        *start = *p;
   1145c:	8b 45 f8             	mov    -0x8(%ebp),%eax
   1145f:	0f b6 10             	movzbl (%eax),%edx
   11462:	8b 45 ec             	mov    -0x14(%ebp),%eax
   11465:	88 10                	mov    %dl,(%eax)
        *p-- = ch;
   11467:	8b 45 f8             	mov    -0x8(%ebp),%eax
   1146a:	8d 50 ff             	lea    -0x1(%eax),%edx
   1146d:	89 55 f8             	mov    %edx,-0x8(%ebp)
   11470:	0f b6 55 e5          	movzbl -0x1b(%ebp),%edx
   11474:	88 10                	mov    %dl,(%eax)
        start++;
   11476:	83 45 ec 01          	addl   $0x1,-0x14(%ebp)
    while (start < p) {
   1147a:	8b 45 ec             	mov    -0x14(%ebp),%eax
   1147d:	3b 45 f8             	cmp    -0x8(%ebp),%eax
   11480:	72 d1                	jb     11453 <kernel_itoa+0x10a>
    }
}
   11482:	83 c4 20             	add    $0x20,%esp
   11485:	5b                   	pop    %ebx
   11486:	5d                   	pop    %ebp
   11487:	c3                   	ret    

00011488 <kernel_vsprintf>:

/**
 * 格式化字符串
 */
// "version: %s","1.0.0"
void kernel_vsprintf(char * buf,const char * fmt,va_list args) {
   11488:	55                   	push   %ebp
   11489:	89 e5                	mov    %esp,%ebp
   1148b:	83 ec 20             	sub    $0x20,%esp
    // 状态机
    enum{NORMAL,READ_FMT} state = NORMAL;
   1148e:	c7 45 fc 00 00 00 00 	movl   $0x0,-0x4(%ebp)

    
    char * curr = buf;
   11495:	8b 45 08             	mov    0x8(%ebp),%eax
   11498:	89 45 f8             	mov    %eax,-0x8(%ebp)
    char ch;
    while ((ch = *fmt++)) {
   1149b:	e9 17 01 00 00       	jmp    115b7 <kernel_vsprintf+0x12f>
        switch(state) {
   114a0:	8b 45 fc             	mov    -0x4(%ebp),%eax
   114a3:	85 c0                	test   %eax,%eax
   114a5:	74 0a                	je     114b1 <kernel_vsprintf+0x29>
   114a7:	83 f8 01             	cmp    $0x1,%eax
   114aa:	74 2b                	je     114d7 <kernel_vsprintf+0x4f>
   114ac:	e9 06 01 00 00       	jmp    115b7 <kernel_vsprintf+0x12f>
            case NORMAL:
                if(ch == '%') {
   114b1:	80 7d ef 25          	cmpb   $0x25,-0x11(%ebp)
   114b5:	75 0c                	jne    114c3 <kernel_vsprintf+0x3b>
                    state = READ_FMT;
   114b7:	c7 45 fc 01 00 00 00 	movl   $0x1,-0x4(%ebp)
   114be:	e9 f4 00 00 00       	jmp    115b7 <kernel_vsprintf+0x12f>
                }else{
                    *curr++ = ch;
   114c3:	8b 45 f8             	mov    -0x8(%ebp),%eax
   114c6:	8d 50 01             	lea    0x1(%eax),%edx
   114c9:	89 55 f8             	mov    %edx,-0x8(%ebp)
   114cc:	0f b6 55 ef          	movzbl -0x11(%ebp),%edx
   114d0:	88 10                	mov    %dl,(%eax)
                }
                break;
   114d2:	e9 e0 00 00 00       	jmp    115b7 <kernel_vsprintf+0x12f>

            case READ_FMT:
                
                if (ch == 's') {
   114d7:	80 7d ef 73          	cmpb   $0x73,-0x11(%ebp)
   114db:	75 47                	jne    11524 <kernel_vsprintf+0x9c>
                    const char * str = va_arg(args,char *); // 反复调用va_arg 取变量
   114dd:	8b 45 10             	mov    0x10(%ebp),%eax
   114e0:	8d 50 04             	lea    0x4(%eax),%edx
   114e3:	89 55 10             	mov    %edx,0x10(%ebp)
   114e6:	8b 00                	mov    (%eax),%eax
   114e8:	89 45 f4             	mov    %eax,-0xc(%ebp)
                    int len = kernel_strlen(str);
   114eb:	ff 75 f4             	pushl  -0xc(%ebp)
   114ee:	e8 03 fd ff ff       	call   111f6 <kernel_strlen>
   114f3:	83 c4 04             	add    $0x4,%esp
   114f6:	89 45 f0             	mov    %eax,-0x10(%ebp)
                    while(len--) {
   114f9:	eb 17                	jmp    11512 <kernel_vsprintf+0x8a>
                        *curr++ = *str++;
   114fb:	8b 55 f4             	mov    -0xc(%ebp),%edx
   114fe:	8d 42 01             	lea    0x1(%edx),%eax
   11501:	89 45 f4             	mov    %eax,-0xc(%ebp)
   11504:	8b 45 f8             	mov    -0x8(%ebp),%eax
   11507:	8d 48 01             	lea    0x1(%eax),%ecx
   1150a:	89 4d f8             	mov    %ecx,-0x8(%ebp)
   1150d:	0f b6 12             	movzbl (%edx),%edx
   11510:	88 10                	mov    %dl,(%eax)
                    while(len--) {
   11512:	8b 45 f0             	mov    -0x10(%ebp),%eax
   11515:	8d 50 ff             	lea    -0x1(%eax),%edx
   11518:	89 55 f0             	mov    %edx,-0x10(%ebp)
   1151b:	85 c0                	test   %eax,%eax
   1151d:	75 dc                	jne    114fb <kernel_vsprintf+0x73>
   1151f:	e9 8b 00 00 00       	jmp    115af <kernel_vsprintf+0x127>
                    }
                }else if(ch == 'd'){
   11524:	80 7d ef 64          	cmpb   $0x64,-0x11(%ebp)
   11528:	75 2e                	jne    11558 <kernel_vsprintf+0xd0>
                    int num = va_arg(args,int);
   1152a:	8b 45 10             	mov    0x10(%ebp),%eax
   1152d:	8d 50 04             	lea    0x4(%eax),%edx
   11530:	89 55 10             	mov    %edx,0x10(%ebp)
   11533:	8b 00                	mov    (%eax),%eax
   11535:	89 45 e4             	mov    %eax,-0x1c(%ebp)
                    kernel_itoa(curr,num,10);
   11538:	6a 0a                	push   $0xa
   1153a:	ff 75 e4             	pushl  -0x1c(%ebp)
   1153d:	ff 75 f8             	pushl  -0x8(%ebp)
   11540:	e8 04 fe ff ff       	call   11349 <kernel_itoa>
   11545:	83 c4 0c             	add    $0xc,%esp
                    curr += kernel_strlen(curr);
   11548:	ff 75 f8             	pushl  -0x8(%ebp)
   1154b:	e8 a6 fc ff ff       	call   111f6 <kernel_strlen>
   11550:	83 c4 04             	add    $0x4,%esp
   11553:	01 45 f8             	add    %eax,-0x8(%ebp)
   11556:	eb 57                	jmp    115af <kernel_vsprintf+0x127>
                }else if(ch == 'x'){
   11558:	80 7d ef 78          	cmpb   $0x78,-0x11(%ebp)
   1155c:	75 2e                	jne    1158c <kernel_vsprintf+0x104>
                    int num = va_arg(args,int);
   1155e:	8b 45 10             	mov    0x10(%ebp),%eax
   11561:	8d 50 04             	lea    0x4(%eax),%edx
   11564:	89 55 10             	mov    %edx,0x10(%ebp)
   11567:	8b 00                	mov    (%eax),%eax
   11569:	89 45 e8             	mov    %eax,-0x18(%ebp)
                    kernel_itoa(curr,num,16);
   1156c:	6a 10                	push   $0x10
   1156e:	ff 75 e8             	pushl  -0x18(%ebp)
   11571:	ff 75 f8             	pushl  -0x8(%ebp)
   11574:	e8 d0 fd ff ff       	call   11349 <kernel_itoa>
   11579:	83 c4 0c             	add    $0xc,%esp
                    curr += kernel_strlen(curr);                    
   1157c:	ff 75 f8             	pushl  -0x8(%ebp)
   1157f:	e8 72 fc ff ff       	call   111f6 <kernel_strlen>
   11584:	83 c4 04             	add    $0x4,%esp
   11587:	01 45 f8             	add    %eax,-0x8(%ebp)
   1158a:	eb 23                	jmp    115af <kernel_vsprintf+0x127>
                }else if(ch == 'c'){
   1158c:	80 7d ef 63          	cmpb   $0x63,-0x11(%ebp)
   11590:	75 1d                	jne    115af <kernel_vsprintf+0x127>
                    char c = va_arg(args,int);
   11592:	8b 45 10             	mov    0x10(%ebp),%eax
   11595:	8d 50 04             	lea    0x4(%eax),%edx
   11598:	89 55 10             	mov    %edx,0x10(%ebp)
   1159b:	8b 00                	mov    (%eax),%eax
   1159d:	88 45 ee             	mov    %al,-0x12(%ebp)
                    *curr++ = c;
   115a0:	8b 45 f8             	mov    -0x8(%ebp),%eax
   115a3:	8d 50 01             	lea    0x1(%eax),%edx
   115a6:	89 55 f8             	mov    %edx,-0x8(%ebp)
   115a9:	0f b6 55 ee          	movzbl -0x12(%ebp),%edx
   115ad:	88 10                	mov    %dl,(%eax)
                }
                state = NORMAL;
   115af:	c7 45 fc 00 00 00 00 	movl   $0x0,-0x4(%ebp)
                break;
   115b6:	90                   	nop
    while ((ch = *fmt++)) {
   115b7:	8b 45 0c             	mov    0xc(%ebp),%eax
   115ba:	8d 50 01             	lea    0x1(%eax),%edx
   115bd:	89 55 0c             	mov    %edx,0xc(%ebp)
   115c0:	0f b6 00             	movzbl (%eax),%eax
   115c3:	88 45 ef             	mov    %al,-0x11(%ebp)
   115c6:	80 7d ef 00          	cmpb   $0x0,-0x11(%ebp)
   115ca:	0f 85 d0 fe ff ff    	jne    114a0 <kernel_vsprintf+0x18>
        }
    }
}
   115d0:	90                   	nop
   115d1:	c9                   	leave  
   115d2:	c3                   	ret    

000115d3 <panic>:

void panic(const char * file,int line, const char * func, const char * cond){
   115d3:	55                   	push   %ebp
   115d4:	89 e5                	mov    %esp,%ebp
   115d6:	83 ec 08             	sub    $0x8,%esp
    log_printf("assert failed! %s",cond);
   115d9:	83 ec 08             	sub    $0x8,%esp
   115dc:	ff 75 14             	pushl  0x14(%ebp)
   115df:	68 bc 1b 01 00       	push   $0x11bbc
   115e4:	e8 cd 01 00 00       	call   117b6 <log_printf>
   115e9:	83 c4 10             	add    $0x10,%esp
    log_printf("file: %s\nline %d\nfunc: %s\n", file, line, func);
   115ec:	ff 75 10             	pushl  0x10(%ebp)
   115ef:	ff 75 0c             	pushl  0xc(%ebp)
   115f2:	ff 75 08             	pushl  0x8(%ebp)
   115f5:	68 ce 1b 01 00       	push   $0x11bce
   115fa:	e8 b7 01 00 00       	call   117b6 <log_printf>
   115ff:	83 c4 10             	add    $0x10,%esp
    for (;;) {
        hlt();
   11602:	e8 b7 fa ff ff       	call   110be <hlt>
   11607:	eb f9                	jmp    11602 <panic+0x2f>

00011609 <list_is_empty>:
static inline int list_is_empty(list_t *list) {
   11609:	55                   	push   %ebp
   1160a:	89 e5                	mov    %esp,%ebp
    return list->count == 0;
   1160c:	8b 45 08             	mov    0x8(%ebp),%eax
   1160f:	8b 40 08             	mov    0x8(%eax),%eax
   11612:	85 c0                	test   %eax,%eax
   11614:	0f 94 c0             	sete   %al
   11617:	0f b6 c0             	movzbl %al,%eax
}
   1161a:	5d                   	pop    %ebp
   1161b:	c3                   	ret    

0001161c <list_init>:
#include "tools/list.h"
#include "comm/types.h"


void list_init (list_t * list) {
   1161c:	55                   	push   %ebp
   1161d:	89 e5                	mov    %esp,%ebp
    list->first = list->last = (list_node_t *)0;
   1161f:	8b 45 08             	mov    0x8(%ebp),%eax
   11622:	c7 40 04 00 00 00 00 	movl   $0x0,0x4(%eax)
   11629:	8b 45 08             	mov    0x8(%ebp),%eax
   1162c:	8b 50 04             	mov    0x4(%eax),%edx
   1162f:	8b 45 08             	mov    0x8(%ebp),%eax
   11632:	89 10                	mov    %edx,(%eax)
    list->count = 0;
   11634:	8b 45 08             	mov    0x8(%ebp),%eax
   11637:	c7 40 08 00 00 00 00 	movl   $0x0,0x8(%eax)
}
   1163e:	90                   	nop
   1163f:	5d                   	pop    %ebp
   11640:	c3                   	ret    

00011641 <list_insert_first>:

void list_insert_first(list_t *list, list_node_t *node){
   11641:	55                   	push   %ebp
   11642:	89 e5                	mov    %esp,%ebp

    node->next = list->first;
   11644:	8b 45 08             	mov    0x8(%ebp),%eax
   11647:	8b 10                	mov    (%eax),%edx
   11649:	8b 45 0c             	mov    0xc(%ebp),%eax
   1164c:	89 50 04             	mov    %edx,0x4(%eax)
    node->pre = (list_node_t *)0;
   1164f:	8b 45 0c             	mov    0xc(%ebp),%eax
   11652:	c7 00 00 00 00 00    	movl   $0x0,(%eax)

    if (list_is_empty(list)) {
   11658:	ff 75 08             	pushl  0x8(%ebp)
   1165b:	e8 a9 ff ff ff       	call   11609 <list_is_empty>
   11660:	83 c4 04             	add    $0x4,%esp
   11663:	85 c0                	test   %eax,%eax
   11665:	74 16                	je     1167d <list_insert_first+0x3c>
        list->first = list->last = node;
   11667:	8b 45 08             	mov    0x8(%ebp),%eax
   1166a:	8b 55 0c             	mov    0xc(%ebp),%edx
   1166d:	89 50 04             	mov    %edx,0x4(%eax)
   11670:	8b 45 08             	mov    0x8(%ebp),%eax
   11673:	8b 50 04             	mov    0x4(%eax),%edx
   11676:	8b 45 08             	mov    0x8(%ebp),%eax
   11679:	89 10                	mov    %edx,(%eax)
   1167b:	eb 12                	jmp    1168f <list_insert_first+0x4e>
    } else {
        list->first->pre = node;
   1167d:	8b 45 08             	mov    0x8(%ebp),%eax
   11680:	8b 00                	mov    (%eax),%eax
   11682:	8b 55 0c             	mov    0xc(%ebp),%edx
   11685:	89 10                	mov    %edx,(%eax)
        list->first = node;
   11687:	8b 45 08             	mov    0x8(%ebp),%eax
   1168a:	8b 55 0c             	mov    0xc(%ebp),%edx
   1168d:	89 10                	mov    %edx,(%eax)
    }

    list->count++;
   1168f:	8b 45 08             	mov    0x8(%ebp),%eax
   11692:	8b 40 08             	mov    0x8(%eax),%eax
   11695:	8d 50 01             	lea    0x1(%eax),%edx
   11698:	8b 45 08             	mov    0x8(%ebp),%eax
   1169b:	89 50 08             	mov    %edx,0x8(%eax)
}
   1169e:	90                   	nop
   1169f:	c9                   	leave  
   116a0:	c3                   	ret    

000116a1 <list_insert_last>:

void list_insert_last(list_t *list, list_node_t *node) {
   116a1:	55                   	push   %ebp
   116a2:	89 e5                	mov    %esp,%ebp
    node->pre = list->last;
   116a4:	8b 45 08             	mov    0x8(%ebp),%eax
   116a7:	8b 50 04             	mov    0x4(%eax),%edx
   116aa:	8b 45 0c             	mov    0xc(%ebp),%eax
   116ad:	89 10                	mov    %edx,(%eax)
    node->next = (list_node_t *)0;
   116af:	8b 45 0c             	mov    0xc(%ebp),%eax
   116b2:	c7 40 04 00 00 00 00 	movl   $0x0,0x4(%eax)

    if(list_is_empty(list)) {
   116b9:	ff 75 08             	pushl  0x8(%ebp)
   116bc:	e8 48 ff ff ff       	call   11609 <list_is_empty>
   116c1:	83 c4 04             	add    $0x4,%esp
   116c4:	85 c0                	test   %eax,%eax
   116c6:	74 16                	je     116de <list_insert_last+0x3d>
        list->first = list->last = node;
   116c8:	8b 45 08             	mov    0x8(%ebp),%eax
   116cb:	8b 55 0c             	mov    0xc(%ebp),%edx
   116ce:	89 50 04             	mov    %edx,0x4(%eax)
   116d1:	8b 45 08             	mov    0x8(%ebp),%eax
   116d4:	8b 50 04             	mov    0x4(%eax),%edx
   116d7:	8b 45 08             	mov    0x8(%ebp),%eax
   116da:	89 10                	mov    %edx,(%eax)
   116dc:	eb 15                	jmp    116f3 <list_insert_last+0x52>
    } else {
        list->last->next = node;
   116de:	8b 45 08             	mov    0x8(%ebp),%eax
   116e1:	8b 40 04             	mov    0x4(%eax),%eax
   116e4:	8b 55 0c             	mov    0xc(%ebp),%edx
   116e7:	89 50 04             	mov    %edx,0x4(%eax)
        list->last = node;
   116ea:	8b 45 08             	mov    0x8(%ebp),%eax
   116ed:	8b 55 0c             	mov    0xc(%ebp),%edx
   116f0:	89 50 04             	mov    %edx,0x4(%eax)
    }

    list->count++;
   116f3:	8b 45 08             	mov    0x8(%ebp),%eax
   116f6:	8b 40 08             	mov    0x8(%eax),%eax
   116f9:	8d 50 01             	lea    0x1(%eax),%edx
   116fc:	8b 45 08             	mov    0x8(%ebp),%eax
   116ff:	89 50 08             	mov    %edx,0x8(%eax)
}
   11702:	90                   	nop
   11703:	c9                   	leave  
   11704:	c3                   	ret    

00011705 <inb>:
static inline uint8_t inb(uint16_t port) {
   11705:	55                   	push   %ebp
   11706:	89 e5                	mov    %esp,%ebp
   11708:	83 ec 14             	sub    $0x14,%esp
   1170b:	8b 45 08             	mov    0x8(%ebp),%eax
   1170e:	66 89 45 ec          	mov    %ax,-0x14(%ebp)
    __asm__ __volatile__("inb %[p],%[v]":[v]"=a"(rv):[p]"d"(port));
   11712:	0f b7 45 ec          	movzwl -0x14(%ebp),%eax
   11716:	89 c2                	mov    %eax,%edx
   11718:	ec                   	in     (%dx),%al
   11719:	88 45 ff             	mov    %al,-0x1(%ebp)
    return rv;
   1171c:	0f b6 45 ff          	movzbl -0x1(%ebp),%eax
}
   11720:	c9                   	leave  
   11721:	c3                   	ret    

00011722 <outb>:
static inline void outb(uint16_t port,uint8_t data){
   11722:	55                   	push   %ebp
   11723:	89 e5                	mov    %esp,%ebp
   11725:	83 ec 08             	sub    $0x8,%esp
   11728:	8b 55 08             	mov    0x8(%ebp),%edx
   1172b:	8b 45 0c             	mov    0xc(%ebp),%eax
   1172e:	66 89 55 fc          	mov    %dx,-0x4(%ebp)
   11732:	88 45 f8             	mov    %al,-0x8(%ebp)
    __asm__ __volatile__("outb %[v],%[p]"::[p]"d"(port),[v]"a"(data));
   11735:	0f b7 55 fc          	movzwl -0x4(%ebp),%edx
   11739:	0f b6 45 f8          	movzbl -0x8(%ebp),%eax
   1173d:	ee                   	out    %al,(%dx)
}
   1173e:	90                   	nop
   1173f:	c9                   	leave  
   11740:	c3                   	ret    

00011741 <log_init>:
#include "tools/klib.h"
#include "stdarg.h" // 取可变参数的值

#define COM1_PORT 0x3f8

void log_init(void) {
   11741:	55                   	push   %ebp
   11742:	89 e5                	mov    %esp,%ebp
    
    // 初始化串行接口
    outb(COM1_PORT + 1, 0x00);
   11744:	6a 00                	push   $0x0
   11746:	68 f9 03 00 00       	push   $0x3f9
   1174b:	e8 d2 ff ff ff       	call   11722 <outb>
   11750:	83 c4 08             	add    $0x8,%esp
    outb(COM1_PORT + 3, 0x80);
   11753:	68 80 00 00 00       	push   $0x80
   11758:	68 fb 03 00 00       	push   $0x3fb
   1175d:	e8 c0 ff ff ff       	call   11722 <outb>
   11762:	83 c4 08             	add    $0x8,%esp
    outb(COM1_PORT + 0, 0x3);
   11765:	6a 03                	push   $0x3
   11767:	68 f8 03 00 00       	push   $0x3f8
   1176c:	e8 b1 ff ff ff       	call   11722 <outb>
   11771:	83 c4 08             	add    $0x8,%esp
    outb(COM1_PORT + 1, 0x00);
   11774:	6a 00                	push   $0x0
   11776:	68 f9 03 00 00       	push   $0x3f9
   1177b:	e8 a2 ff ff ff       	call   11722 <outb>
   11780:	83 c4 08             	add    $0x8,%esp
    outb(COM1_PORT + 3, 0x03);
   11783:	6a 03                	push   $0x3
   11785:	68 fb 03 00 00       	push   $0x3fb
   1178a:	e8 93 ff ff ff       	call   11722 <outb>
   1178f:	83 c4 08             	add    $0x8,%esp
    outb(COM1_PORT + 2, 0xc7);
   11792:	68 c7 00 00 00       	push   $0xc7
   11797:	68 fa 03 00 00       	push   $0x3fa
   1179c:	e8 81 ff ff ff       	call   11722 <outb>
   117a1:	83 c4 08             	add    $0x8,%esp
    outb(COM1_PORT + 4, 0x0f);
   117a4:	6a 0f                	push   $0xf
   117a6:	68 fc 03 00 00       	push   $0x3fc
   117ab:	e8 72 ff ff ff       	call   11722 <outb>
   117b0:	83 c4 08             	add    $0x8,%esp

}
   117b3:	90                   	nop
   117b4:	c9                   	leave  
   117b5:	c3                   	ret    

000117b6 <log_printf>:
// 支持可变参数
void log_printf(const char * fmt, ...) {
   117b6:	55                   	push   %ebp
   117b7:	89 e5                	mov    %esp,%ebp
   117b9:	81 ec 98 00 00 00    	sub    $0x98,%esp

// 缓冲区
    char str_buf[128];
    kernel_memset(str_buf,'\0',sizeof(str_buf));
   117bf:	83 ec 04             	sub    $0x4,%esp
   117c2:	68 80 00 00 00       	push   $0x80
   117c7:	6a 00                	push   $0x0
   117c9:	8d 85 74 ff ff ff    	lea    -0x8c(%ebp),%eax
   117cf:	50                   	push   %eax
   117d0:	e8 ab fa ff ff       	call   11280 <kernel_memset>
   117d5:	83 c4 10             	add    $0x10,%esp

    va_list args;
    va_start(args,fmt);
   117d8:	8d 45 0c             	lea    0xc(%ebp),%eax
   117db:	89 85 70 ff ff ff    	mov    %eax,-0x90(%ebp)

    kernel_vsprintf(str_buf,fmt,args);
   117e1:	8b 85 70 ff ff ff    	mov    -0x90(%ebp),%eax
   117e7:	83 ec 04             	sub    $0x4,%esp
   117ea:	50                   	push   %eax
   117eb:	ff 75 08             	pushl  0x8(%ebp)
   117ee:	8d 85 74 ff ff ff    	lea    -0x8c(%ebp),%eax
   117f4:	50                   	push   %eax
   117f5:	e8 8e fc ff ff       	call   11488 <kernel_vsprintf>
   117fa:	83 c4 10             	add    $0x10,%esp
    va_end(args);

    const char * p = str_buf;
   117fd:	8d 85 74 ff ff ff    	lea    -0x8c(%ebp),%eax
   11803:	89 45 f4             	mov    %eax,-0xc(%ebp)
    while(*p != '\0') {
   11806:	eb 31                	jmp    11839 <log_printf+0x83>
        while (inb(COM1_PORT + 5) & (1 << 6) == 0);
   11808:	90                   	nop
   11809:	83 ec 0c             	sub    $0xc,%esp
   1180c:	68 fd 03 00 00       	push   $0x3fd
   11811:	e8 ef fe ff ff       	call   11705 <inb>
   11816:	83 c4 10             	add    $0x10,%esp
        outb(COM1_PORT,*p++);
   11819:	8b 45 f4             	mov    -0xc(%ebp),%eax
   1181c:	8d 50 01             	lea    0x1(%eax),%edx
   1181f:	89 55 f4             	mov    %edx,-0xc(%ebp)
   11822:	0f b6 00             	movzbl (%eax),%eax
   11825:	0f b6 c0             	movzbl %al,%eax
   11828:	83 ec 08             	sub    $0x8,%esp
   1182b:	50                   	push   %eax
   1182c:	68 f8 03 00 00       	push   $0x3f8
   11831:	e8 ec fe ff ff       	call   11722 <outb>
   11836:	83 c4 10             	add    $0x10,%esp
    while(*p != '\0') {
   11839:	8b 45 f4             	mov    -0xc(%ebp),%eax
   1183c:	0f b6 00             	movzbl (%eax),%eax
   1183f:	84 c0                	test   %al,%al
   11841:	75 c5                	jne    11808 <log_printf+0x52>
    }

// 变列
    outb(COM1_PORT,'\r');
   11843:	83 ec 08             	sub    $0x8,%esp
   11846:	6a 0d                	push   $0xd
   11848:	68 f8 03 00 00       	push   $0x3f8
   1184d:	e8 d0 fe ff ff       	call   11722 <outb>
   11852:	83 c4 10             	add    $0x10,%esp
// 变行    
    outb(COM1_PORT,'\n');
   11855:	83 ec 08             	sub    $0x8,%esp
   11858:	6a 0a                	push   $0xa
   1185a:	68 f8 03 00 00       	push   $0x3f8
   1185f:	e8 be fe ff ff       	call   11722 <outb>
   11864:	83 c4 10             	add    $0x10,%esp
   11867:	90                   	nop
   11868:	c9                   	leave  
   11869:	c3                   	ret    
